LX51 LINKER/LOCATER V4.41                                                               06/21/2011  10:49:25  PAGE 1


LX51 LINKER/LOCATER V4.41, INVOKED BY:
C:\KEIL\C51\BIN\LX51.EXE STARTUP.obj, bpu1.obj TO Project_bpu


CPU MODE:     8051 MODE
MEMORY MODEL: SMALL WITH FLOATING POINT ARITHMETIC


INPUT MODULES INCLUDED:
  STARTUP.obj (?C_STARTUP)
         COMMENT TYPE 0: AX51 V3.06h
  bpu1.obj (BPU1)
         COMMENT TYPE 0: C51 V9.00
  C:\KEIL\C51\LIB\C51FPS.LIB (?C?FPADD)
         COMMENT TYPE 1: A51 / ASM51 Assembler
  C:\KEIL\C51\LIB\C51FPS.LIB (?C?FPMUL)
         COMMENT TYPE 1: A51 / ASM51 Assembler
  C:\KEIL\C51\LIB\C51FPS.LIB (?C?FPDIV)
         COMMENT TYPE 1: A51 / ASM51 Assembler
  C:\KEIL\C51\LIB\C51FPS.LIB (?C?FPCMP)
         COMMENT TYPE 1: A51 / ASM51 Assembler
  C:\KEIL\C51\LIB\C51FPS.LIB (?C?FPNEG)
         COMMENT TYPE 1: A51 / ASM51 Assembler
  C:\KEIL\C51\LIB\C51FPS.LIB (?C?FCAST)
         COMMENT TYPE 1: A51 / ASM51 Assembler
  C:\KEIL\C51\LIB\C51FPS.LIB (?C?CASTF)
         COMMENT TYPE 1: A51 / ASM51 Assembler
  C:\KEIL\C51\LIB\C51FPS.LIB (FABS)
         COMMENT TYPE 1: A51 / ASM51 Assembler
  C:\KEIL\C51\LIB\C51FPS.LIB (SQRT)
         COMMENT TYPE 1: A51 / ASM51 Assembler
  C:\KEIL\C51\LIB\C51FPS.LIB (ATAN2)
         COMMENT TYPE 1: C51 Compiler
  C:\KEIL\C51\LIB\C51FPS.LIB (SIN)
         COMMENT TYPE 1: A51 / ASM51 Assembler
  C:\KEIL\C51\LIB\C51FPS.LIB (?C?FPGETOPN)
         COMMENT TYPE 1: A51 / ASM51 Assembler
  C:\KEIL\C51\LIB\C51FPS.LIB (?C?FPSERIES)
         COMMENT TYPE 1: A51 / ASM51 Assembler
  C:\KEIL\C51\LIB\C51FPS.LIB (ATAN)
         COMMENT TYPE 1: A51 / ASM51 Assembler
  C:\KEIL\C51\LIB\C51S.LIB (?C_INIT)
         COMMENT TYPE 1: A51 / ASM51 Assembler
  C:\KEIL\C51\LIB\C51S.LIB (?C?CLDOPTR)
         COMMENT TYPE 1: A51 / ASM51 Assembler
  C:\KEIL\C51\LIB\C51S.LIB (?C?IMUL)
         COMMENT TYPE 1: A51 / ASM51 Assembler
  C:\KEIL\C51\LIB\C51S.LIB (?C?SIDIV)
         COMMENT TYPE 1: A51 / ASM51 Assembler
  C:\KEIL\C51\LIB\C51S.LIB (?C?ILDIX)
         COMMENT TYPE 1: A51 / ASM51 Assembler
  C:\KEIL\C51\LIB\C51S.LIB (?C?LMUL)
         COMMENT TYPE 1: A51 / ASM51 Assembler
  C:\KEIL\C51\LIB\C51S.LIB (?C?SLDIV)
         COMMENT TYPE 1: A51 / ASM51 Assembler
  C:\KEIL\C51\LIB\C51S.LIB (?C?LNEG)
         COMMENT TYPE 1: A51 / ASM51 Assembler
  C:\KEIL\C51\LIB\C51S.LIB (?C?SLCMP)
         COMMENT TYPE 1: A51 / ASM51 Assembler
  C:\KEIL\C51\LIB\C51S.LIB (?C?ULCMP)
         COMMENT TYPE 1: A51 / ASM51 Assembler
  C:\KEIL\C51\LIB\C51S.LIB (?C?ULSHR)
         COMMENT TYPE 1: A51 / ASM51 Assembler
  C:\KEIL\C51\LIB\C51S.LIB (?C?SLSHR)
         COMMENT TYPE 1: A51 / ASM51 Assembler
  C:\KEIL\C51\LIB\C51S.LIB (?C?LSHL)
LX51 LINKER/LOCATER V4.41                                                             06/21/2011  10:49:25  PAGE 2


         COMMENT TYPE 1: A51 / ASM51 Assembler
  C:\KEIL\C51\LIB\C51S.LIB (?C?LLDCODE)
         COMMENT TYPE 1: A51 / ASM51 Assembler
  C:\KEIL\C51\LIB\C51S.LIB (?C?LLDCODE0)
         COMMENT TYPE 1: A51 / ASM51 Assembler
  C:\KEIL\C51\LIB\C51S.LIB (?C?LSTXDATA)
         COMMENT TYPE 1: A51 / ASM51 Assembler
  C:\KEIL\C51\LIB\C51S.LIB (?C?LSTKXDATA)
         COMMENT TYPE 1: A51 / ASM51 Assembler
  C:\KEIL\C51\LIB\C51S.LIB (ATOI)
         COMMENT TYPE 1: C51 Compiler
  C:\KEIL\C51\LIB\C51S.LIB (?C?CLDPTR)
         COMMENT TYPE 1: A51 / ASM51 Assembler
  C:\KEIL\C51\LIB\C51S.LIB (?C?UIDIV)
         COMMENT TYPE 1: A51 / ASM51 Assembler
  C:\KEIL\C51\LIB\C51S.LIB (?C?ULDIV)
         COMMENT TYPE 1: A51 / ASM51 Assembler
  C:\KEIL\C51\LIB\C51S.LIB (ISDIGIT)
         COMMENT TYPE 1: C51 Compiler
  C:\KEIL\C51\LIB\C51S.LIB (ISSPACE)
         COMMENT TYPE 1: C51 Compiler


ACTIVE MEMORY CLASSES OF MODULE:  Project_bpu (?C_STARTUP)

BASE        START       END         USED      MEMORY CLASS
==========================================================
C:000000H   C:000000H   C:00FFFFH   0048E5H   CODE
I:000000H   I:000000H   I:0000FFH   000001H   IDATA
I:000020H.0 I:000020H.0 I:00002FH.7 000002H.2 BIT
I:000000H   I:000000H   I:00007FH   000028H   DATA
X:000000H   X:000000H   X:00FFFFH   0007DBH   XDATA


MEMORY MAP OF MODULE:  Project_bpu (?C_STARTUP)


START     STOP      LENGTH    ALIGN  RELOC    MEMORY CLASS   SEGMENT NAME
=========================================================================

* * * * * * * * * * *   D A T A   M E M O R Y   * * * * * * * * * * * * *
000000H   000007H   000008H   ---    AT..     DATA           "REG BANK 0"
000008H   000019H   000012H   BYTE   UNIT     DATA           ?DT?BPU1
00001AH   00001FH   000006H   ---    ---      **GAP**
000020H   000021H   000002H   BYTE   BITADDR  DATA           ?BA?BPU1
000022H.0 000023H.5 000001H.6 BIT    UNIT     BIT            ?BI?BPU1
000023H.6 000024H.1 000000H.4 BIT    UNIT     BIT            _BIT_GROUP_
000024H.2 000024H   000000H.6 ---    ---      **GAP**
000025H   000030H   00000CH   BYTE   UNIT     DATA           _DATA_GROUP_
000031H   000031H   000001H   BYTE   UNIT     IDATA          ?STACK

* * * * * * * * * * *   C O D E   M E M O R Y   * * * * * * * * * * * * *
000000H   000002H   000003H   ---    OFFS..   CODE           ?CO?STARTUP?3
000003H   00000AH   000008H   ---    ---      **GAP**
00000BH   00000DH   000003H   BYTE   OFFS..   CODE           ?BPU1?0000B
00000EH   000020H   000013H   BYTE   UNIT     CODE           ?PR?_ISSPACE?ISSPACE
000021H   000022H   000002H   ---    ---      **GAP**
000023H   000025H   000003H   BYTE   OFFS..   CODE           ?BPU1?00023
000026H   000098H   000073H   BYTE   UNIT     CODE           ?PR?_ATAN2?ATAN2
000099H   0000A2H   00000AH   BYTE   UNIT     CODE           ?PR?_WRITEBYTEINKZA?BPU1
0000A3H   0000A5H   000003H   BYTE   OFFS..   CODE           ?BPU1?000A3
0000A6H   001BDEH   001B39H   BYTE   UNIT     CODE           ?PR?MAIN?BPU1
001BDFH   002FC5H   0013E7H   BYTE   UNIT     CODE           ?PR?TIMER0_ISR?BPU1
002FC6H   0037F7H   000832H   BYTE   UNIT     CODE           ?PR?OUTMODEM?BPU1
0037F8H   003F01H   00070AH   BYTE   UNIT     CODE           ?C?LIB_CODE
LX51 LINKER/LOCATER V4.41                                                             06/21/2011  10:49:25  PAGE 3


003F02H   00406FH   00016EH   BYTE   UNIT     CODE           ?PR?SIN?SIN
004070H   0041AFH   000140H   BYTE   UNIT     CODE           ?PR?_DECODELATORLON?BPU1
0041B0H   0042D7H   000128H   BYTE   UNIT     CODE           ?PR?ATAN?ATAN
0042D8H   004385H   0000AEH   BYTE   UNIT     CODE           ?PR?_ATOI?ATOI
004386H   004431H   0000ACH   BYTE   UNIT     CODE           ?PR?UART0_ISR?BPU1
004432H   0044DBH   0000AAH   BYTE   UNIT     CODE           ?PR?SQRT?SQRT
0044DCH   004583H   0000A8H   BYTE   UNIT     CODE           ?PR?_PACKAGEINMODEM4?BPU1
004584H   00460FH   00008CH   BYTE   UNIT     CODE           ?C_C51STARTUP
004610H   00468FH   000080H   BYTE   UNIT     CODE           ?PR?SYSCLK?BPU1
004690H   0046F8H   000069H   BYTE   UNIT     CODE           ?PR?UART1_ISR?BPU1
0046F9H   00475FH   000067H   BYTE   UNIT     CODE           ?PR?_PACKAGEINMODEM2?BPU1
004760H   0047ABH   00004CH   BYTE   UNIT     CODE           ?PR?_CONTRLSUMMA?BPU1
0047ACH   0047EFH   000044H   BYTE   UNIT     CODE           ?C?LDIV
0047F0H   004819H   00002AH   BYTE   UNIT     CODE           ?PR?ADC_INIT?BPU1
00481AH   00483EH   000025H   BYTE   UNIT     CODE           ?PR?PORT_INIT?BPU1
00483FH   00485CH   00001EH   BYTE   UNIT     CODE           ?PR?UART0_INIT?BPU1
00485DH   004878H   00001CH   BYTE   UNIT     CODE           ?PR?DAC0_INIT?BPU1
004879H   004890H   000018H   BYTE   UNIT     CODE           ?PR?UART1_INIT?BPU1
004891H   0048A8H   000018H   BYTE   UNIT     CODE           ?C_INITSEG
0048A9H   0048BEH   000016H   BYTE   UNIT     CODE           ?PR?CONFIG?BPU1
0048BFH   0048D0H   000012H   BYTE   UNIT     CODE           ?PR?TIMER0_INIT?BPU1
0048D1H   0048DFH   00000FH   BYTE   UNIT     CODE           ?PR?_ISDIGIT?ISDIGIT
0048E0H   0048ECH   00000DH   BYTE   UNIT     CODE           ?PR?_FABS?FABS
0048EDH   00FBFDH   00B311H   ---    ---      **GAP**
00FBFEH   00FBFEH   000001H   BYTE   OFFS..   CODE           ?CO?BPU1?0
00FBFFH   00FBFFH   000001H   BYTE   OFFS..   CODE           ?CO?BPU1?1

* * * * * * * * * * *  X D A T A   M E M O R Y  * * * * * * * * * * * * *
000000H   000778H   000779H   BYTE   UNIT     XDATA          ?XD?BPU1
000779H   0007DAH   000062H   BYTE   UNIT     XDATA          _XDATA_GROUP_



OVERLAY MAP OF MODULE:   Project_bpu (?C_STARTUP)


FUNCTION/MODULE              BIT_GROUP   DATA_GROUP   XDATA_GROUP
--> CALLED FUNCTION/MODULE  START  STOP  START  STOP  START  STOP
=================================================================
?C_C51STARTUP               ----- -----  ----- -----  ----- -----
  +--> ?PR?MAIN?BPU1
  +--> ?C_INITSEG

MAIN/BPU1                   23H.6 23H.7  ----- -----  0779H 07C7H
  +--> ?PR?PORT_INIT?BPU1
  +--> ?PR?SYSCLK?BPU1
  +--> ?PR?UART0_INIT?BPU1
  +--> ?PR?UART1_INIT?BPU1
  +--> ?PR?DAC0_INIT?BPU1
  +--> ?PR?ADC_INIT?BPU1
  +--> ?PR?TIMER0_INIT?BPU1
  +--> ?PR?CONFIG?BPU1
  +--> ?PR?_WRITEBYTEINKZA?BPU1
  +--> ?PR?OUTMODEM?BPU1
  +--> ?PR?_DECODELATORLON?BPU1
  +--> ?PR?SIN?SIN
  +--> ?PR?_PACKAGEINMODEM4?BPU1
  +--> ?PR?_CONTRLSUMMA?BPU1
  +--> ?PR?SQRT?SQRT
  +--> ?PR?_FABS?FABS
  +--> ?PR?_ATAN2?ATAN2
  +--> ?PR?_ATOI?ATOI

PORT_INIT/BPU1              ----- -----  ----- -----  ----- -----

LX51 LINKER/LOCATER V4.41                                                             06/21/2011  10:49:25  PAGE 4


SYSCLK/BPU1                 ----- -----  ----- -----  07C8H 07C9H

UART0_INIT/BPU1             ----- -----  ----- -----  ----- -----

UART1_INIT/BPU1             ----- -----  ----- -----  ----- -----

DAC0_INIT/BPU1              ----- -----  ----- -----  ----- -----

ADC_INIT/BPU1               ----- -----  ----- -----  ----- -----

TIMER0_INIT/BPU1            ----- -----  ----- -----  ----- -----

CONFIG/BPU1                 ----- -----  ----- -----  ----- -----

_WRITEBYTEINKZA/BPU1        ----- -----  ----- -----  ----- -----

OUTMODEM/BPU1               ----- -----  ----- -----  07C8H 07CCH
  +--> ?PR?_PACKAGEINMODEM4?BPU1
  +--> ?PR?_PACKAGEINMODEM2?BPU1

_PACKAGEINMODEM4/BPU1       ----- -----  0025H 0029H  ----- -----

_PACKAGEINMODEM2/BPU1       ----- -----  0025H 0026H  ----- -----

_DECODELATORLON/BPU1        ----- -----  0025H 0028H  07C8H 07CFH

SIN/SIN                     24H.0 24H.0  0025H 0028H  ----- -----

_CONTRLSUMMA/BPU1           ----- -----  0025H 0028H  07C8H 07C9H

SQRT/SQRT                   ----- -----  0025H 0028H  ----- -----

_FABS/FABS                  ----- -----  ----- -----  ----- -----

_ATAN2/ATAN2                ----- -----  0025H 002CH  ----- -----
  +--> ?PR?ATAN?ATAN

ATAN/ATAN                   24H.0 24H.1  002DH 0030H  ----- -----

_ATOI/ATOI                  24H.0 24H.0  0025H 0029H  ----- -----
  +--> ?PR?_ISSPACE?ISSPACE
  +--> ?PR?_ISDIGIT?ISDIGIT

_ISSPACE/ISSPACE            ----- -----  ----- -----  ----- -----

_ISDIGIT/ISDIGIT            ----- -----  ----- -----  ----- -----

?C_INITSEG                  ----- -----  ----- -----  ----- -----

*** NEW ROOT **************

UART0_ISR/BPU1              ----- -----  ----- -----  07D0H 07D0H

*** NEW ROOT **************

UART1_ISR/BPU1              ----- -----  ----- -----  07D1H 07D2H

*** NEW ROOT **************

TIMER0_ISR/BPU1             ----- -----  ----- -----  07D3H 07DAH



PUBLIC SYMBOLS OF MODULE:  Project_bpu (?C_STARTUP)

LX51 LINKER/LOCATER V4.41                                                             06/21/2011  10:49:25  PAGE 5



      VALUE       CLASS    TYPE      PUBLIC SYMBOL NAME
      =================================================
      00000025H   DATA     ---       ?_atan2?BYTE
      00000025H   DATA     BYTE      ?_PackageInModem4?BYTE
      01003B52H   CODE     ---       ?C?CASTF
      01003C20H   CODE     ---       ?C?CLDOPTR
      01003DC6H   CODE     ---       ?C?CLDPTR
      00000000H   NUMBER   ---       ?C?CODESEG
      01003B1EH   CODE     ---       ?C?FCASTC
      01003B19H   CODE     ---       ?C?FCASTI
      01003B14H   CODE     ---       ?C?FCASTL
      01003BD3H   CODE     ---       ?C?FP2SERIES
      010037FFH   CODE     ---       ?C?FPADD
      01003A98H   CODE     ---       ?C?FPCMP
      01003A96H   CODE     ---       ?C?FPCMP3
      010039F9H   CODE     ---       ?C?FPDIV
      01003B89H   CODE     ---       ?C?FPGETOPN2
      010038F0H   CODE     ---       ?C?FPMUL
      01003BBEH   CODE     ---       ?C?FPNANRESULT
      01003B03H   CODE     ---       ?C?FPNEG
      01003BC8H   CODE     ---       ?C?FPOVERFLOW
      01003BA0H   CODE     ---       ?C?FPRESULT
      01003BB4H   CODE     ---       ?C?FPRESULT2
      01003BE2H   CODE     ---       ?C?FPSERIES
      010037FBH   CODE     ---       ?C?FPSUB
      01003BC5H   CODE     ---       ?C?FPUNDERFLOW
      01003C95H   CODE     ---       ?C?ILDIX
      01003C4DH   CODE     ---       ?C?IMUL
      01003D69H   CODE     ---       ?C?LLDCODE
      01003D79H   CODE     ---       ?C?LLDCODE0
      01003CABH   CODE     ---       ?C?LMUL
      01003CFAH   CODE     ---       ?C?LNEG
      01003D56H   CODE     ---       ?C?LSHL
      01003D95H   CODE     ---       ?C?LSTKXDATA
      01003D89H   CODE     ---       ?C?LSTXDATA
      01003C5FH   CODE     ---       ?C?SIDIV
      01003D08H   CODE     ---       ?C?SLCMP
      010047ACH   CODE     ---       ?C?SLDIV
      01003D42H   CODE     ---       ?C?SLSHR
      01003DDFH   CODE     ---       ?C?UIDIV
      01003D1EH   CODE     ---       ?C?ULCMP
      01003E70H   CODE     ---       ?C?ULDIV
      01003D2FH   CODE     ---       ?C?ULSHR
      00000000H   NUMBER   ---       ?C?XDATASEG
      010045CBH   CODE     ---       ?C_START
      01000000H   CODE     NEAR LAB  ?C_STARTUP
      010041D0H   CODE     ---       _ATAN
      01000026H   CODE     ---       _atan2
      010042D8H   CODE     ---       _atoi
      01004760H   CODE     ---       _ContrlSumma
      01003F4AH   CODE     ---       _COS
      01004078H   CODE     ---       _DecodeLatOrLon
      010048E0H   CODE     ---       _FABS
      010048D1H   CODE     ---       _isdigit
      0100000EH   CODE     ---       _isspace
      0100471DH   CODE     ---       _PackageInModem2
      010044EAH   CODE     ---       _PackageInModem4
      01003F60H   CODE     ---       _SIN
      01004436H   CODE     ---       _SQRT
      01003F92H   CODE     ---       _TAN
      010000A2H   CODE     ---       _WriteByteInKZA
*SFR* 000000C0H.2 DATA     BIT       AA
*SFR* 000000D0H.6 DATA     BIT       AC
*SFR* 000000E0H   DATA     BYTE      ACC
LX51 LINKER/LOCATER V4.41                                                             06/21/2011  10:49:25  PAGE 6


*SFR* 000000E8H.4 DATA     BIT       AD0BUSY
*SFR* 000000E8H.2 DATA     BIT       AD0CM0
*SFR* 000000E8H.3 DATA     BIT       AD0CM1
*SFR* 000000E8H.7 DATA     BIT       AD0EN
*SFR* 000000E8H.5 DATA     BIT       AD0INT
*SFR* 000000E8H   DATA     BIT       AD0LJST
*SFR* 000000E8H.6 DATA     BIT       AD0TM
*SFR* 000000E8H.1 DATA     BIT       AD0WINT
*SFR* 000000E8H.4 DATA     BIT       AD2BUSY
*SFR* 000000E8H.1 DATA     BIT       AD2CM0
*SFR* 000000E8H.2 DATA     BIT       AD2CM1
*SFR* 000000E8H.3 DATA     BIT       AD2CM2
*SFR* 000000E8H.7 DATA     BIT       AD2EN
*SFR* 000000E8H.5 DATA     BIT       AD2INT
*SFR* 000000E8H.6 DATA     BIT       AD2TM
*SFR* 000000E8H   DATA     BIT       AD2WINT
*SFR* 000000BEH   DATA     WORD      ADC0
*SFR* 000000BCH   DATA     BYTE      ADC0CF
*SFR* 000000E8H   DATA     BYTE      ADC0CN
*SFR* 000000C4H   DATA     WORD      ADC0GT
*SFR* 000000C5H   DATA     BYTE      ADC0GTH
*SFR* 000000C4H   DATA     BYTE      ADC0GTL
*SFR* 000000BFH   DATA     BYTE      ADC0H
*SFR* 000000BEH   DATA     BYTE      ADC0L
*SFR* 000000C6H   DATA     WORD      ADC0LT
*SFR* 000000C7H   DATA     BYTE      ADC0LTH
*SFR* 000000C6H   DATA     BYTE      ADC0LTL
*SFR* 000000BEH   DATA     BYTE      ADC2
*SFR* 000000BCH   DATA     BYTE      ADC2CF
*SFR* 000000E8H   DATA     BYTE      ADC2CN
*SFR* 000000C4H   DATA     BYTE      ADC2GT
*SFR* 000000C6H   DATA     BYTE      ADC2LT
      010047F0H   CODE     ---       ADC_init
      00000013H   DATA     CHAR      addr_rd
      00000014H   DATA     INT       addr_wr
*SFR* 000000BAH   DATA     BYTE      AMX0CF
*SFR* 000000BBH   DATA     BYTE      AMX0SL
*SFR* 000000BAH   DATA     BYTE      AMX2CF
*SFR* 000000BBH   DATA     BYTE      AMX2SL
      0000000CH   DATA     INT       asd
      0200071BH   XDATA    FLOAT     ax
      02000775H   XDATA    FLOAT     ax_gir
      02000000H   XDATA    FLOAT     ay_gir
      02000004H   XDATA    FLOAT     az_gir
*SFR* 000000F0H   DATA     BYTE      B
*SFR* 000000A0H.6 DATA     BIT       bitStart
      02000017H   XDATA    ---       BuferFromModem
      02000032H   XDATA    ---       BufferInModem
*SFR* 000000C0H.7 DATA     BIT       BUSY
*SFR* 000000D8H   DATA     BIT       CCF0
*SFR* 000000D8H.1 DATA     BIT       CCF1
*SFR* 000000D8H.2 DATA     BIT       CCF2
*SFR* 000000D8H.3 DATA     BIT       CCF3
*SFR* 000000D8H.4 DATA     BIT       CCF4
*SFR* 000000D8H.5 DATA     BIT       CCF5
*SFR* 000000A1H   DATA     BYTE      CCH0CN
*SFR* 000000A3H   DATA     BYTE      CCH0LC
*SFR* 0000009AH   DATA     BYTE      CCH0MA
*SFR* 000000A2H   DATA     BYTE      CCH0TN
*SFR* 000000D8H.7 DATA     BIT       CF
*SFR* 0000008EH   DATA     BYTE      CKCON
*SFR* 00000097H   DATA     BYTE      CLKSEL
      010048A9H   CODE     ---       config
      02000769H   XDATA    FLOAT     cos_Lat0
      02000761H   XDATA    FLOAT     cos_tang_gir
LX51 LINKER/LOCATER V4.41                                                             06/21/2011  10:49:25  PAGE 7


      020002D3H   XDATA    CHAR      CountRun
*SFR* 00000088H.7 DATA     BIT       CP0EN
*SFR* 00000088H.4 DATA     BIT       CP0FIF
*SFR* 00000088H   DATA     BIT       CP0HYN0
*SFR* 00000088H.1 DATA     BIT       CP0HYN1
*SFR* 00000088H.2 DATA     BIT       CP0HYP0
*SFR* 00000088H.3 DATA     BIT       CP0HYP1
*SFR* 00000088H.6 DATA     BIT       CP0OUT
*SFR* 00000088H.5 DATA     BIT       CP0RIF
*SFR* 00000088H.7 DATA     BIT       CP1EN
*SFR* 00000088H.4 DATA     BIT       CP1FIF
*SFR* 00000088H   DATA     BIT       CP1HYN0
*SFR* 00000088H.1 DATA     BIT       CP1HYN1
*SFR* 00000088H.2 DATA     BIT       CP1HYP0
*SFR* 00000088H.3 DATA     BIT       CP1HYP1
*SFR* 00000088H.6 DATA     BIT       CP1OUT
*SFR* 00000088H.5 DATA     BIT       CP1RIF
*SFR* 000000C8H   DATA     BIT       CPRL2
*SFR* 000000C8H   DATA     BIT       CPRL3
*SFR* 000000C8H   DATA     BIT       CPRL4
*SFR* 00000088H   DATA     BYTE      CPT0CN
*SFR* 00000089H   DATA     BYTE      CPT0MD
*SFR* 00000088H   DATA     BYTE      CPT1CN
*SFR* 00000089H   DATA     BYTE      CPT1MD
*SFR* 000000D8H.6 DATA     BIT       CR
*SFR* 000000B0H   DATA     BIT       CS
*SFR* 000000C8H.1 DATA     BIT       CT2
*SFR* 000000C8H.1 DATA     BIT       CT3
*SFR* 000000C8H.1 DATA     BIT       CT4
*SFR* 000000D0H.7 DATA     BIT       CY
*SFR* 000000D2H   DATA     WORD      DAC0
      0100485DH   CODE     ---       DAC0_init
*SFR* 000000D4H   DATA     BYTE      DAC0CN
*SFR* 000000D3H   DATA     BYTE      DAC0H
*SFR* 000000D2H   DATA     BYTE      DAC0L
*SFR* 000000D5H   DATA     WORD      DAC1
*SFR* 000000D4H   DATA     BYTE      DAC1CN
*SFR* 000000D3H   DATA     BYTE      DAC1H
*SFR* 000000D2H   DATA     BYTE      DAC1L
      00000021H   DATA     BYTE      Dat1
      00000020H   DATA     BYTE      Dat2
      00000010H   DATA     INT       data_pwm
      00000008H   DATA     INT       data_pwm_i
      02000008H   XDATA    CHAR      dataRSTSRC
      0200070BH   XDATA    FLOAT     delta_e
      0200070FH   XDATA    FLOAT     delta_g
      02000717H   XDATA    FLOAT     delta_k
      0200071FH   XDATA    FLOAT     delta_n
      020006F4H   XDATA    FLOAT     delta_ro
      0200072FH   XDATA    FLOAT     delta_v
      02000737H   XDATA    FLOAT     delta_z
      00000018H   DATA     INT       discret
*SFR* 00000082H   DATA     WORD      DP
*SFR* 00000083H   DATA     BYTE      DPH
*SFR* 00000082H   DATA     BYTE      DPL
*SFR* 000000A8H.7 DATA     BIT       EA
*SFR* 000000E6H   DATA     BYTE      EIE1
*SFR* 000000E7H   DATA     BYTE      EIE2
*SFR* 000000F6H   DATA     BYTE      EIP1
*SFR* 000000F7H   DATA     BYTE      EIP2
*SFR* 000000A3H   DATA     BYTE      EMI0CF
*SFR* 000000A2H   DATA     BYTE      EMI0CN
*SFR* 000000A1H   DATA     BYTE      EMI0TC
*SFR* 000000C0H.6 DATA     BIT       ENSMB
*SFR* 000000A8H.4 DATA     BIT       ES0
LX51 LINKER/LOCATER V4.41                                                             06/21/2011  10:49:25  PAGE 8


*SFR* 000000A8H.1 DATA     BIT       ET0
*SFR* 000000A8H.3 DATA     BIT       ET1
*SFR* 000000A8H.5 DATA     BIT       ET2
*SFR* 000000A8H   DATA     BIT       EX0
*SFR* 000000A8H.2 DATA     BIT       EX1
      02000009H   XDATA    FLOAT     ex_gir
*SFR* 000000C8H.3 DATA     BIT       EXEN2
*SFR* 000000C8H.3 DATA     BIT       EXEN3
*SFR* 000000C8H.3 DATA     BIT       EXEN4
*SFR* 000000C8H.6 DATA     BIT       EXF2
*SFR* 000000C8H.6 DATA     BIT       EXF3
*SFR* 000000C8H.6 DATA     BIT       EXF4
      0200000FH   XDATA    FLOAT     ey_gir
      02000013H   XDATA    FLOAT     ez_gir
*SFR* 000000D0H.5 DATA     BIT       F0
*SFR* 000000D0H.1 DATA     BIT       F1
*SFR* 000000B7H   DATA     BYTE      FLACL
      00000023H.1 BIT      BIT       flAnswer
      00000020H.0 DATA     BIT       flAvtomatK
      00000021H.6 DATA     BIT       flAvtomatV
      00000022H.5 BIT      BIT       flCommand
      00000023H.2 BIT      BIT       flcounter
      00000023H.5 BIT      BIT       flFromStart
      00000023H.0 BIT      BIT       flGPS
*SFR* 00000088H   DATA     BIT       FLHBUSY
      02000745H   XDATA    CHAR      flInit
      00000022H.6 BIT      BIT       fln_
      00000022H.1 BIT      BIT       flNew
      00000022H.4 BIT      BIT       flNoKoord
      02000242H   XDATA    CHAR      flOk
      00000021H.4 DATA     BIT       flOtkazRK
      00000023H.4 BIT      BIT       flPriv
      00000022H.3 BIT      BIT       flRun
*SFR* 000000B7H   DATA     BYTE      FLSCL
      00000021H.3 DATA     BIT       flSleep
      00000021H.2 DATA     BIT       flStart
*SFR* 00000088H   DATA     BYTE      FLSTAT
      00000021H.5 DATA     BIT       flStopSU
      00000022H.7 BIT      BIT       flTransmit
      00000022H.2 BIT      BIT       flTransmiter
      020004D8H   XDATA    FLOAT     H
      02000765H   XDATA    FLOAT     H0
      020004E5H   XDATA    FLOAT     H_filtr
      02000243H   XDATA    FLOAT     H_filtr_pr
      0200076DH   XDATA    FLOAT     H_tmp
      0200073FH   XDATA    INT       H_zad
      00000017H   DATA     CHAR      i
      02000031H   XDATA    BYTE      i_mar
      0200072DH   XDATA    WORD      i_Vzlet
*SFR* 000000A8H   DATA     BYTE      IE
*SFR* 00000088H.1 DATA     BIT       IE0
*SFR* 00000088H.3 DATA     BIT       IE1
*SFR* 000000A0H.7 DATA     BIT       int1
      02000758H   XDATA    FLOAT     int_delta_ax
      020004DDH   XDATA    FLOAT     int_delta_Vy_zad_ogr_nab
      02000260H   XDATA    FLOAT     int_dKren
      0200073BH   XDATA    FLOAT     int_dV
*SFR* 000000B8H   DATA     BYTE      IP
*SFR* 00000088H   DATA     BIT       IT0
*SFR* 00000088H.2 DATA     BIT       IT1
      02000275H   XDATA    INT       koors
      02000269H   XDATA    FLOAT     Kren_dat
      02000279H   XDATA    CHAR      Kren_zad
      0200070AH   XDATA    CHAR      Kren_zad_buf
      02000268H   XDATA    CHAR      KrenKam
LX51 LINKER/LOCATER V4.41                                                             06/21/2011  10:49:25  PAGE 9


      020006F3H   XDATA    CHAR      KrenKam_zad
      02000709H   XDATA    CHAR      Lat0
      020002D4H   XDATA    ---       LatMar
      02000741H   XDATA    LONG      liTimer_tick
      0200027BH   XDATA    LONG      liTimer_tick_GPS
      020002CEH   XDATA    DWORD     lLatFly
      02000746H   XDATA    DWORD     lLatFly0
      02000271H   XDATA    DWORD     lLatZad
      02000750H   XDATA    DWORD     lLatZad_pr
      020004D4H   XDATA    DWORD     lLonFly
      02000754H   XDATA    DWORD     lLonFly0
      0200027FH   XDATA    DWORD     lLonZad
      02000771H   XDATA    DWORD     lLonZad_pr
      020004E9H   XDATA    ---       LonMar
      0000000EH   DATA     CHAR      lsb
      010000A6H   CODE     ---       main
      020002D2H   XDATA    CHAR      mar
      02000254H   XDATA    CHAR      marBFM
*SFR* 00000098H.5 DATA     BIT       MCE1
      02000283H   XDATA    ---       mess
*SFR* 000000F8H.5 DATA     BIT       MODF
      0000000FH   DATA     CHAR      msb
      020006EDH   XDATA    BYTE      n_
      0200000DH   XDATA    WORD      NoCommand
*SFR* 000000F8H.2 DATA     BIT       NSSMD0
*SFR* 000000F8H.3 DATA     BIT       NSSMD1
*SFR* 0000008BH   DATA     BYTE      OSCICL
*SFR* 0000008AH   DATA     BYTE      OSCICN
*SFR* 0000008CH   DATA     BYTE      OSCXCN
      01002FC6H   CODE     ---       OutModem
*SFR* 000000D0H.2 DATA     BIT       OV
*SFR* 000000D0H   DATA     BIT       P
*SFR* 00000080H   DATA     BYTE      P0
*SFR* 000000A4H   DATA     BYTE      P0MDOUT
*SFR* 00000090H   DATA     BYTE      P1
*SFR* 000000ADH   DATA     BYTE      P1MDIN
*SFR* 000000A5H   DATA     BYTE      P1MDOUT
*SFR* 000000A0H   DATA     BYTE      P2
*SFR* 000000A6H   DATA     BYTE      P2MDOUT
*SFR* 000000B0H   DATA     BYTE      P3
*SFR* 000000A7H   DATA     BYTE      P3MDOUT
*SFR* 000000C8H   DATA     BYTE      P4
*SFR* 0000009CH   DATA     BYTE      P4MDOUT
*SFR* 000000D8H   DATA     BYTE      P5
*SFR* 0000009DH   DATA     BYTE      P5MDOUT
*SFR* 000000E8H   DATA     BYTE      P6
*SFR* 0000009EH   DATA     BYTE      P6MDOUT
*SFR* 000000F8H   DATA     BYTE      P7
*SFR* 0000009FH   DATA     BYTE      P7MDOUT
*SFR* 000000D8H   DATA     BYTE      PCA0CN
*SFR* 000000FCH   DATA     BYTE      PCA0CPH0
*SFR* 000000FEH   DATA     BYTE      PCA0CPH1
*SFR* 000000EAH   DATA     BYTE      PCA0CPH2
*SFR* 000000ECH   DATA     BYTE      PCA0CPH3
*SFR* 000000EEH   DATA     BYTE      PCA0CPH4
*SFR* 000000E2H   DATA     BYTE      PCA0CPH5
*SFR* 000000FBH   DATA     BYTE      PCA0CPL0
*SFR* 000000FDH   DATA     BYTE      PCA0CPL1
*SFR* 000000E9H   DATA     BYTE      PCA0CPL2
*SFR* 000000EBH   DATA     BYTE      PCA0CPL3
*SFR* 000000EDH   DATA     BYTE      PCA0CPL4
*SFR* 000000E1H   DATA     BYTE      PCA0CPL5
*SFR* 000000DAH   DATA     BYTE      PCA0CPM0
*SFR* 000000DBH   DATA     BYTE      PCA0CPM1
*SFR* 000000DCH   DATA     BYTE      PCA0CPM2
LX51 LINKER/LOCATER V4.41                                                             06/21/2011  10:49:25  PAGE 10


*SFR* 000000DDH   DATA     BYTE      PCA0CPM3
*SFR* 000000DEH   DATA     BYTE      PCA0CPM4
*SFR* 000000DFH   DATA     BYTE      PCA0CPM5
*SFR* 000000FAH   DATA     BYTE      PCA0H
*SFR* 000000F9H   DATA     BYTE      PCA0L
*SFR* 000000D9H   DATA     BYTE      PCA0MD
*SFR* 00000087H   DATA     BYTE      PCON
*SFR* 00000089H   DATA     BYTE      PLL0CN
*SFR* 0000008DH   DATA     BYTE      PLL0DIV
*SFR* 0000008FH   DATA     BYTE      PLL0FLT
*SFR* 0000008EH   DATA     BYTE      PLL0MUL
      0100481AH   CODE     ---       port_init
*SFR* 000000A0H   DATA     BYTE      PPAGE_SFR
*SFR* 000000B8H.4 DATA     BIT       PS
*SFR* 000000B1H   DATA     BYTE      PSBANK
*SFR* 0000008FH   DATA     BYTE      PSCTL
*SFR* 000000D0H   DATA     BYTE      PSW
*SFR* 000000B8H.1 DATA     BIT       PT0
*SFR* 000000B8H.3 DATA     BIT       PT1
*SFR* 000000B8H.5 DATA     BIT       PT2
      0000000AH   DATA     ---       pwrite
*SFR* 000000B8H   DATA     BIT       PX0
*SFR* 000000B8H.2 DATA     BIT       PX1
      0200074AH   XDATA    FLOAT     q
      0200074EH   XDATA    CHAR      r
      0200025EH   XDATA    INT       r0
*SFR* 00000098H.2 DATA     BIT       RB80
*SFR* 00000098H.2 DATA     BIT       RB81
      020004DCH   XDATA    CHAR      rBFM
*SFR* 000000CAH   DATA     WORD      RCAP2
*SFR* 000000CBH   DATA     BYTE      RCAP2H
*SFR* 000000CAH   DATA     BYTE      RCAP2L
*SFR* 000000CAH   DATA     WORD      RCAP3
*SFR* 000000CBH   DATA     BYTE      RCAP3H
*SFR* 000000CAH   DATA     BYTE      RCAP3L
*SFR* 000000CAH   DATA     WORD      RCAP4
*SFR* 000000CBH   DATA     BYTE      RCAP4H
*SFR* 000000CAH   DATA     BYTE      RCAP4L
*SFR* 000000B0H.6 DATA     BIT       rd
*SFR* 000000B0H.3 DATA     BIT       RDY
*SFR* 000000B0H.4 DATA     BIT       re
*SFR* 000000D1H   DATA     BYTE      REF0CN
*SFR* 00000098H.4 DATA     BIT       REN0
*SFR* 00000098H.4 DATA     BIT       REN1
*SFR* 000000B0H.2 DATA     BIT       RESET_FLASH
*SFR* 00000098H   DATA     BIT       RI0
*SFR* 00000098H   DATA     BIT       RI1
      0200072BH   XDATA    INT       rk
      0100FBFFH   CODE     BYTE      RLB
*SFR* 000000D0H.3 DATA     BIT       RS0
*SFR* 000000D0H.4 DATA     BIT       RS1
*SFR* 000000EFH   DATA     BYTE      RSTSRC
*SFR* 000000F8H.4 DATA     BIT       RXOVRN
*SFR* 00000098H.7 DATA     BIT       S1MODE
      0200025AH   XDATA    FLOAT     s_H_filtr
      02000733H   XDATA    FLOAT     s_H_filtr_pr
      02000264H   XDATA    FLOAT     s_Vy_filtr
*SFR* 000000A9H   DATA     BYTE      SADDR0
*SFR* 000000B9H   DATA     BYTE      SADEN0
*SFR* 00000099H   DATA     BYTE      SBUF0
*SFR* 00000099H   DATA     BYTE      SBUF1
*SFR* 00000098H   DATA     BYTE      SCON0
*SFR* 00000098H   DATA     BYTE      SCON1
*SFR* 00000086H   DATA     BYTE      SFRLAST
*SFR* 00000085H   DATA     BYTE      SFRNEXT
LX51 LINKER/LOCATER V4.41                                                             06/21/2011  10:49:25  PAGE 11


*SFR* 00000084H   DATA     BYTE      SFRPAGE
*SFR* 00000096H   DATA     BYTE      SFRPGCN
*SFR* 000000C0H.3 DATA     BIT       SI
*SFR* 00000098H.7 DATA     BIT       SM00
*SFR* 00000098H.6 DATA     BIT       SM10
*SFR* 00000098H.5 DATA     BIT       SM20
*SFR* 000000C3H   DATA     BYTE      SMB0ADR
*SFR* 000000C0H   DATA     BYTE      SMB0CN
*SFR* 000000CFH   DATA     BYTE      SMB0CR
*SFR* 000000C2H   DATA     BYTE      SMB0DAT
*SFR* 000000C1H   DATA     BYTE      SMB0STA
*SFR* 000000C0H.1 DATA     BIT       SMBFTE
*SFR* 000000C0H   DATA     BIT       SMBTOE
*SFR* 00000081H   DATA     BYTE      SP
*SFR* 0000009AH   DATA     BYTE      SPI0CFG
*SFR* 0000009DH   DATA     BYTE      SPI0CKR
*SFR* 000000F8H   DATA     BYTE      SPI0CN
*SFR* 0000009BH   DATA     BYTE      SPI0DAT
*SFR* 000000F8H   DATA     BIT       SPIEN
*SFR* 000000F8H.7 DATA     BIT       SPIF
*SFR* 00000091H   DATA     BYTE      SSTA0
*SFR* 000000C0H.5 DATA     BIT       STA
      02000030H   XDATA    BYTE      SteckPoint
*SFR* 000000C0H.4 DATA     BIT       STO
      00000023H.3 BIT      BIT       sw
      01004610H   CODE     ---       SYSCLK
*SFR* 00000098H.3 DATA     BIT       TB80
*SFR* 00000098H.3 DATA     BIT       TB81
*SFR* 00000088H   DATA     BYTE      TCON
*SFR* 00000088H.5 DATA     BIT       TF0
*SFR* 00000088H.7 DATA     BIT       TF1
*SFR* 000000C8H.7 DATA     BIT       TF2
*SFR* 000000C8H.7 DATA     BIT       TF3
*SFR* 000000C8H.7 DATA     BIT       TF4
*SFR* 0000008CH   DATA     BYTE      TH0
*SFR* 0000008DH   DATA     BYTE      TH1
*SFR* 00000098H.1 DATA     BIT       TI0
*SFR* 00000098H.1 DATA     BIT       TI1
      010048BFH   CODE     ---       Timer0_init
      01001BDFH   CODE     ---       TIMER0_ISR
      02000277H   XDATA    WORD      timer_tick
*SFR* 0000008AH   DATA     BYTE      TL0
*SFR* 0000008BH   DATA     BYTE      TL1
*SFR* 00000089H   DATA     BYTE      TMOD
      00000012H   DATA     CHAR      tmp
*SFR* 000000CCH   DATA     WORD      TMR2
*SFR* 000000C9H   DATA     BYTE      TMR2CF
*SFR* 000000C8H   DATA     BYTE      TMR2CN
*SFR* 000000CDH   DATA     BYTE      TMR2H
*SFR* 000000CCH   DATA     BYTE      TMR2L
*SFR* 000000CCH   DATA     WORD      TMR3
*SFR* 000000C9H   DATA     BYTE      TMR3CF
*SFR* 000000C8H   DATA     BYTE      TMR3CN
*SFR* 000000CDH   DATA     BYTE      TMR3H
*SFR* 000000CCH   DATA     BYTE      TMR3L
*SFR* 000000CCH   DATA     WORD      TMR4
*SFR* 000000C9H   DATA     BYTE      TMR4CF
*SFR* 000000C8H   DATA     BYTE      TMR4CN
*SFR* 000000CDH   DATA     BYTE      TMR4H
*SFR* 000000CCH   DATA     BYTE      TMR4L
*SFR* 00000088H.4 DATA     BIT       TR0
*SFR* 00000088H.6 DATA     BIT       TR1
*SFR* 000000C8H.2 DATA     BIT       TR2
*SFR* 000000C8H.2 DATA     BIT       TR3
*SFR* 000000C8H.2 DATA     BIT       TR4
LX51 LINKER/LOCATER V4.41                                                             06/21/2011  10:49:25  PAGE 12


      00000016H   DATA     CHAR      tt
      020004E1H   XDATA    FLOAT     Tx
*SFR* 000000F8H.1 DATA     BIT       TXBMT
      020006E9H   XDATA    FLOAT     Ty
      020006EFH   XDATA    FLOAT     Tz
      0100483FH   CODE     ---       UART0_Init
      01004386H   CODE     ---       UART0_isr
      01004879H   CODE     ---       UART1_Init
      01004690H   CODE     ---       UART1_isr
      0200027AH   XDATA    CHAR      UgolKam
      02000713H   XDATA    FLOAT     V
      02000255H   XDATA    FLOAT     V_pr
      02000723H   XDATA    FLOAT     V_vetra
      0200075DH   XDATA    FLOAT     V_zad
      020006FCH   XDATA    FLOAT     Vy
      02000259H   XDATA    CHAR      Vy_zad_max
      02000253H   XDATA    CHAR      Vy_zad_min
      0200026DH   XDATA    FLOAT     Vy_zad_ogr_nab
      02000727H   XDATA    FLOAT     Vy_zad_ogr_sn
      02000704H   XDATA    BYTE      Vz
      0200074FH   XDATA    CHAR      Vz_zad
      0200075CH   XDATA    CHAR      w
      020006EEH   XDATA    CHAR      wBFM
*SFR* 000000F8H.6 DATA     BIT       WCOL
*SFR* 000000FFH   DATA     BYTE      WDTCN
*SFR* 000000B0H.3 DATA     BIT       we
      0100FBFEH   CODE     BYTE      WELB
*SFR* 000000B0H.1 DATA     BIT       WP
*SFR* 000000B0H.5 DATA     BIT       wr
      020006F8H   XDATA    FLOAT     Wx
      02000247H   XDATA    FLOAT     Wx_pr
      02000700H   XDATA    FLOAT     Wy
      0200024BH   XDATA    FLOAT     Wy_pr
      02000705H   XDATA    FLOAT     Wz
      0200024FH   XDATA    FLOAT     Wz_pr
*SFR* 000000E1H   DATA     BYTE      XBR0
*SFR* 000000E2H   DATA     BYTE      XBR1
*SFR* 000000E3H   DATA     BYTE      XBR2



SYMBOL TABLE OF MODULE:  Project_bpu (?C_STARTUP)

      VALUE       REP       CLASS    TYPE      SYMBOL NAME
      ====================================================
      ---         MODULE    ---      ---       ?C_STARTUP
      01000000H   PUBLIC    CODE     NEAR LAB  ?C_STARTUP
      000000E0H   SFRSYM    DATA     BYTE      ACC
      000000F0H   SFRSYM    DATA     BYTE      B
      00000083H   SFRSYM    DATA     BYTE      DPH
      00000082H   SFRSYM    DATA     BYTE      DPL
      000000A0H   SFRSYM    DATA     BYTE      PPAGE_SFR
      00000081H   SFRSYM    DATA     BYTE      SP
      00000000H   SYMBOL    NUMBER   ---       IBPSTACK
      00000100H   SYMBOL    NUMBER   ---       IBPSTACKTOP
      00000080H   SYMBOL    NUMBER   ---       IDATALEN
      01004587H   SYMBOL    CODE     NEAR LAB  IDATALOOP
      00000000H   SYMBOL    NUMBER   ---       PBPSTACK
      00000100H   SYMBOL    NUMBER   ---       PBPSTACKTOP
      00000000H   SYMBOL    NUMBER   ---       PDATALEN
      00000000H   SYMBOL    NUMBER   ---       PDATASTART
      00000000H   SYMBOL    NUMBER   ---       PPAGE
      00000000H   SYMBOL    NUMBER   ---       PPAGEENABLE
      01004584H   SYMBOL    CODE     NEAR LAB  STARTUP1
      00000000H   SYMBOL    NUMBER   ---       XBPSTACK
LX51 LINKER/LOCATER V4.41                                                             06/21/2011  10:49:25  PAGE 13


      00010000H   SYMBOL    NUMBER   ---       XBPSTACKTOP
      00000000H   SYMBOL    NUMBER   ---       XDATALEN
      00000000H   SYMBOL    NUMBER   ---       XDATASTART

      01000000H   BLOCK     CODE     NEAR LAB  LVL=0
      01000000H   LINE      CODE     ---       #126
      ---         BLOCKEND  ---      ---       LVL=0

      01004584H   BLOCK     CODE     NEAR LAB  LVL=0
      01004584H   LINE      CODE     ---       #133
      01004586H   LINE      CODE     ---       #134
      01004587H   LINE      CODE     ---       #135
      01004588H   LINE      CODE     ---       #136
      0100458AH   LINE      CODE     ---       #185
      0100458DH   LINE      CODE     ---       #196
      ---         BLOCKEND  ---      ---       LVL=0

      ---         MODULE    ---      ---       BPU1
      00000021H.4 PUBLIC    DATA     BIT       flOtkazRK
      02000775H   PUBLIC    XDATA    FLOAT     ax_gir
      02000771H   PUBLIC    XDATA    DWORD     lLonZad_pr
      00000023H.5 PUBLIC    BIT      BIT       flFromStart
      0200076DH   PUBLIC    XDATA    FLOAT     H_tmp
      02000769H   PUBLIC    XDATA    FLOAT     cos_Lat0
      02000765H   PUBLIC    XDATA    FLOAT     H0
      02000761H   PUBLIC    XDATA    FLOAT     cos_tang_gir
      0200075DH   PUBLIC    XDATA    FLOAT     V_zad
      0200075CH   PUBLIC    XDATA    CHAR      w
      00000023H.4 PUBLIC    BIT      BIT       flPriv
      02000758H   PUBLIC    XDATA    FLOAT     int_delta_ax
      02000754H   PUBLIC    XDATA    DWORD     lLonFly0
      02000750H   PUBLIC    XDATA    DWORD     lLatZad_pr
      00000018H   PUBLIC    DATA     INT       discret
      0200074FH   PUBLIC    XDATA    CHAR      Vz_zad
      0200074EH   PUBLIC    XDATA    CHAR      r
      0200074AH   PUBLIC    XDATA    FLOAT     q
      02000746H   PUBLIC    XDATA    DWORD     lLatFly0
      00000023H.3 PUBLIC    BIT      BIT       sw
      02000745H   PUBLIC    XDATA    CHAR      flInit
      02000741H   PUBLIC    XDATA    LONG      liTimer_tick
      0200073FH   PUBLIC    XDATA    INT       H_zad
      00000017H   PUBLIC    DATA     CHAR      i
      00000016H   PUBLIC    DATA     CHAR      tt
      0200073BH   PUBLIC    XDATA    FLOAT     int_dV
      02000737H   PUBLIC    XDATA    FLOAT     delta_z
      00000014H   PUBLIC    DATA     INT       addr_wr
      00000021H.2 PUBLIC    DATA     BIT       flStart
      02000733H   PUBLIC    XDATA    FLOAT     s_H_filtr_pr
      0200072FH   PUBLIC    XDATA    FLOAT     delta_v
      0200072DH   PUBLIC    XDATA    WORD      i_Vzlet
      0100FBFFH   PUBLIC    CODE     BYTE      RLB
      0200072BH   PUBLIC    XDATA    INT       rk
      02000727H   PUBLIC    XDATA    FLOAT     Vy_zad_ogr_sn
      02000723H   PUBLIC    XDATA    FLOAT     V_vetra
      0200071FH   PUBLIC    XDATA    FLOAT     delta_n
      0200071BH   PUBLIC    XDATA    FLOAT     ax
      02000717H   PUBLIC    XDATA    FLOAT     delta_k
      00000023H.2 PUBLIC    BIT      BIT       flcounter
      02000713H   PUBLIC    XDATA    FLOAT     V
      0200070FH   PUBLIC    XDATA    FLOAT     delta_g
      00000013H   PUBLIC    DATA     CHAR      addr_rd
      0200070BH   PUBLIC    XDATA    FLOAT     delta_e
      0200070AH   PUBLIC    XDATA    CHAR      Kren_zad_buf
      02000709H   PUBLIC    XDATA    CHAR      Lat0
      00000012H   PUBLIC    DATA     CHAR      tmp
LX51 LINKER/LOCATER V4.41                                                             06/21/2011  10:49:25  PAGE 14


      00000010H   PUBLIC    DATA     INT       data_pwm
      02000705H   PUBLIC    XDATA    FLOAT     Wz
      02000704H   PUBLIC    XDATA    BYTE      Vz
      02000700H   PUBLIC    XDATA    FLOAT     Wy
      020006FCH   PUBLIC    XDATA    FLOAT     Vy
      00000021H.3 PUBLIC    DATA     BIT       flSleep
      020006F8H   PUBLIC    XDATA    FLOAT     Wx
      020006F4H   PUBLIC    XDATA    FLOAT     delta_ro
      020006F3H   PUBLIC    XDATA    CHAR      KrenKam_zad
      020006EFH   PUBLIC    XDATA    FLOAT     Tz
      020006EEH   PUBLIC    XDATA    CHAR      wBFM
      020006EDH   PUBLIC    XDATA    BYTE      n_
      020006E9H   PUBLIC    XDATA    FLOAT     Ty
      020004E9H   PUBLIC    XDATA    ---       LonMar
      020004E5H   PUBLIC    XDATA    FLOAT     H_filtr
      020004E1H   PUBLIC    XDATA    FLOAT     Tx
      020004DDH   PUBLIC    XDATA    FLOAT     int_delta_Vy_zad_ogr_nab
      020004DCH   PUBLIC    XDATA    CHAR      rBFM
      020004D8H   PUBLIC    XDATA    FLOAT     H
      00000023H.1 PUBLIC    BIT      BIT       flAnswer
      020004D4H   PUBLIC    XDATA    DWORD     lLonFly
      020002D4H   PUBLIC    XDATA    ---       LatMar
      020002D3H   PUBLIC    XDATA    CHAR      CountRun
      0000000FH   PUBLIC    DATA     CHAR      msb
      0000000EH   PUBLIC    DATA     CHAR      lsb
      020002D2H   PUBLIC    XDATA    CHAR      mar
      00000023H.0 PUBLIC    BIT      BIT       flGPS
      020002CEH   PUBLIC    XDATA    DWORD     lLatFly
      02000283H   PUBLIC    XDATA    ---       mess
      0000000CH   PUBLIC    DATA     INT       asd
      0200027FH   PUBLIC    XDATA    DWORD     lLonZad
      0200027BH   PUBLIC    XDATA    LONG      liTimer_tick_GPS
      0200027AH   PUBLIC    XDATA    CHAR      UgolKam
      02000279H   PUBLIC    XDATA    CHAR      Kren_zad
      02000277H   PUBLIC    XDATA    WORD      timer_tick
      02000275H   PUBLIC    XDATA    INT       koors
      02000271H   PUBLIC    XDATA    DWORD     lLatZad
      0200026DH   PUBLIC    XDATA    FLOAT     Vy_zad_ogr_nab
      02000269H   PUBLIC    XDATA    FLOAT     Kren_dat
      02000268H   PUBLIC    XDATA    CHAR      KrenKam
      00000022H.7 PUBLIC    BIT      BIT       flTransmit
      0100FBFEH   PUBLIC    CODE     BYTE      WELB
      02000264H   PUBLIC    XDATA    FLOAT     s_Vy_filtr
      00000021H.5 PUBLIC    DATA     BIT       flStopSU
      02000260H   PUBLIC    XDATA    FLOAT     int_dKren
      0200025EH   PUBLIC    XDATA    INT       r0
      00000022H.6 PUBLIC    BIT      BIT       fln_
      0200025AH   PUBLIC    XDATA    FLOAT     s_H_filtr
      0000000AH   PUBLIC    DATA     ---       pwrite
      00000008H   PUBLIC    DATA     INT       data_pwm_i
      02000259H   PUBLIC    XDATA    CHAR      Vy_zad_max
      02000255H   PUBLIC    XDATA    FLOAT     V_pr
      02000254H   PUBLIC    XDATA    CHAR      marBFM
      02000253H   PUBLIC    XDATA    CHAR      Vy_zad_min
      00000022H.5 PUBLIC    BIT      BIT       flCommand
      0200024FH   PUBLIC    XDATA    FLOAT     Wz_pr
      00000022H.4 PUBLIC    BIT      BIT       flNoKoord
      0200024BH   PUBLIC    XDATA    FLOAT     Wy_pr
      02000247H   PUBLIC    XDATA    FLOAT     Wx_pr
      02000243H   PUBLIC    XDATA    FLOAT     H_filtr_pr
      02000242H   PUBLIC    XDATA    CHAR      flOk
      02000032H   PUBLIC    XDATA    ---       BufferInModem
      02000031H   PUBLIC    XDATA    BYTE      i_mar
      00000021H.6 PUBLIC    DATA     BIT       flAvtomatV
      00000021H   PUBLIC    DATA     BYTE      Dat1
LX51 LINKER/LOCATER V4.41                                                             06/21/2011  10:49:25  PAGE 15


      02000030H   PUBLIC    XDATA    BYTE      SteckPoint
      00000022H.3 PUBLIC    BIT      BIT       flRun
      02000017H   PUBLIC    XDATA    ---       BuferFromModem
      00000022H.2 PUBLIC    BIT      BIT       flTransmiter
      02000013H   PUBLIC    XDATA    FLOAT     ez_gir
      0200000FH   PUBLIC    XDATA    FLOAT     ey_gir
      0200000DH   PUBLIC    XDATA    WORD      NoCommand
      02000009H   PUBLIC    XDATA    FLOAT     ex_gir
      02000008H   PUBLIC    XDATA    CHAR      dataRSTSRC
      00000020H   PUBLIC    DATA     BIT       flAvtomatK
      00000020H   PUBLIC    DATA     BYTE      Dat2
      02000004H   PUBLIC    XDATA    FLOAT     az_gir
      00000022H.1 PUBLIC    BIT      BIT       flNew
      02000000H   PUBLIC    XDATA    FLOAT     ay_gir
      010000A2H   PUBLIC    CODE     ---       _WriteByteInKZA
      01001BDFH   PUBLIC    CODE     ---       TIMER0_ISR
      010048BFH   PUBLIC    CODE     ---       Timer0_init
      010047F0H   PUBLIC    CODE     ---       ADC_init
      0100485DH   PUBLIC    CODE     ---       DAC0_init
      01004690H   PUBLIC    CODE     ---       UART1_isr
      01004879H   PUBLIC    CODE     ---       UART1_Init
      01004386H   PUBLIC    CODE     ---       UART0_isr
      0100483FH   PUBLIC    CODE     ---       UART0_Init
      010048A9H   PUBLIC    CODE     ---       config
      0100481AH   PUBLIC    CODE     ---       port_init
      01004610H   PUBLIC    CODE     ---       SYSCLK
      01004078H   PUBLIC    CODE     ---       _DecodeLatOrLon
      01004760H   PUBLIC    CODE     ---       _ContrlSumma
      00000025H   PUBLIC    DATA     BYTE      ?_PackageInModem4?BYTE
      010044EAH   PUBLIC    CODE     ---       _PackageInModem4
      0100471DH   PUBLIC    CODE     ---       _PackageInModem2
      01002FC6H   PUBLIC    CODE     ---       OutModem
      010000A6H   PUBLIC    CODE     ---       main
      000000D8H.2 SFRSYM    DATA     BIT       CCF2
      00000098H.3 SFRSYM    DATA     BIT       TB80
      0000009DH   SFRSYM    DATA     BYTE      SPI0CKR
      000000D8H.3 SFRSYM    DATA     BIT       CCF3
      00000098H.3 SFRSYM    DATA     BIT       TB81
      00000080H   SFRSYM    DATA     BYTE      P0
      000000F8H   SFRSYM    DATA     BIT       SPIEN
      000000D8H.4 SFRSYM    DATA     BIT       CCF4
      00000098H.7 SFRSYM    DATA     BIT       SM00
      00000090H   SFRSYM    DATA     BYTE      P1
      0000008FH   SFRSYM    DATA     BYTE      PLL0FLT
      000000D8H.5 SFRSYM    DATA     BIT       CCF5
      000000C0H.2 SFRSYM    DATA     BIT       AA
      00000098H.6 SFRSYM    DATA     BIT       SM10
      000000FFH   SFRSYM    DATA     BYTE      WDTCN
      000000A0H   SFRSYM    DATA     BYTE      P2
      00000098H.5 SFRSYM    DATA     BIT       SM20
      000000BCH   SFRSYM    DATA     BYTE      ADC0CF
      000000B0H   SFRSYM    DATA     BYTE      P3
      000000D0H.6 SFRSYM    DATA     BIT       AC
      000000C8H   SFRSYM    DATA     BYTE      P4
      000000E6H   SFRSYM    DATA     BYTE      EIE1
      000000D8H   SFRSYM    DATA     BYTE      P5
      000000BCH   SFRSYM    DATA     BYTE      ADC2CF
      000000A8H.7 SFRSYM    DATA     BIT       EA
      000000E8H   SFRSYM    DATA     BYTE      P6
      000000E7H   SFRSYM    DATA     BYTE      EIE2
      00000098H.5 SFRSYM    DATA     BIT       MCE1
      000000F8H   SFRSYM    DATA     BYTE      P7
      0000008FH   SFRSYM    DATA     BYTE      PSCTL
      000000D8H.7 SFRSYM    DATA     BIT       CF
      0000008EH   SFRSYM    DATA     BYTE      PLL0MUL
LX51 LINKER/LOCATER V4.41                                                             06/21/2011  10:49:25  PAGE 16


      000000E8H   SFRSYM    DATA     BYTE      ADC0CN
      000000D4H   SFRSYM    DATA     BYTE      DAC0CN
      00000084H   SFRSYM    DATA     BYTE      SFRPAGE
      000000D4H   SFRSYM    DATA     BYTE      DAC1CN
      000000A4H   SFRSYM    DATA     BYTE      P0MDOUT
      000000E8H   SFRSYM    DATA     BYTE      ADC2CN
      000000A5H   SFRSYM    DATA     BYTE      P1MDOUT
      000000A8H   SFRSYM    DATA     BYTE      IE
      000000A6H   SFRSYM    DATA     BYTE      P2MDOUT
      0000009AH   SFRSYM    DATA     BYTE      CCH0MA
      000000A7H   SFRSYM    DATA     BYTE      P3MDOUT
      000000A3H   SFRSYM    DATA     BYTE      CCH0LC
      000000F6H   SFRSYM    DATA     BYTE      EIP1
      0000009CH   SFRSYM    DATA     BYTE      P4MDOUT
      000000F8H.1 SFRSYM    DATA     BIT       TXBMT
      000000F7H   SFRSYM    DATA     BYTE      EIP2
      000000A1H   SFRSYM    DATA     BYTE      CCH0CN
      0000009DH   SFRSYM    DATA     BYTE      P5MDOUT
      000000FCH   SFRSYM    DATA     BYTE      PCA0CPH0
      0000009EH   SFRSYM    DATA     BYTE      P6MDOUT
      000000FEH   SFRSYM    DATA     BYTE      PCA0CPH1
      0000009FH   SFRSYM    DATA     BYTE      P7MDOUT
      00000082H   SFRSYM    DATA     WORD      DP
      000000EAH   SFRSYM    DATA     BYTE      PCA0CPH2
      000000C4H   SFRSYM    DATA     WORD      ADC0GT
      000000D8H.6 SFRSYM    DATA     BIT       CR
      000000ECH   SFRSYM    DATA     BYTE      PCA0CPH3
      000000B0H   SFRSYM    DATA     BIT       CS
      000000C8H.6 SFRSYM    DATA     BIT       EXF2
      00000098H.4 SFRSYM    DATA     BIT       REN0
      000000FBH   SFRSYM    DATA     BYTE      PCA0CPL0
      000000EEH   SFRSYM    DATA     BYTE      PCA0CPH4
      000000A3H   SFRSYM    DATA     BYTE      EMI0CF
      00000096H   SFRSYM    DATA     BYTE      SFRPGCN
      000000C8H.6 SFRSYM    DATA     BIT       EXF3
      00000098H.4 SFRSYM    DATA     BIT       REN1
      000000FDH   SFRSYM    DATA     BYTE      PCA0CPL1
      000000E2H   SFRSYM    DATA     BYTE      PCA0CPH5
      000000DAH   SFRSYM    DATA     BYTE      PCA0CPM0
      000000D9H   SFRSYM    DATA     BYTE      PCA0MD
      000000D8H   SFRSYM    DATA     BYTE      PCA0CN
      000000C4H   SFRSYM    DATA     BYTE      ADC2GT
      000000C8H.6 SFRSYM    DATA     BIT       EXF4
      000000E9H   SFRSYM    DATA     BYTE      PCA0CPL2
      000000DBH   SFRSYM    DATA     BYTE      PCA0CPM1
      000000EBH   SFRSYM    DATA     BYTE      PCA0CPL3
      000000DCH   SFRSYM    DATA     BYTE      PCA0CPM2
      000000B8H   SFRSYM    DATA     BYTE      IP
      000000C6H   SFRSYM    DATA     WORD      ADC0LT
      00000088H.4 SFRSYM    DATA     BIT       CP0FIF
      000000EDH   SFRSYM    DATA     BYTE      PCA0CPL4
      000000DDH   SFRSYM    DATA     BYTE      PCA0CPM3
      00000088H.4 SFRSYM    DATA     BIT       CP1FIF
      000000E1H   SFRSYM    DATA     BYTE      PCA0CPL5
      000000DEH   SFRSYM    DATA     BYTE      PCA0CPM4
      000000D0H.7 SFRSYM    DATA     BIT       CY
      000000C0H.3 SFRSYM    DATA     BIT       SI
      000000DFH   SFRSYM    DATA     BYTE      PCA0CPM5
      000000C6H   SFRSYM    DATA     BYTE      ADC2LT
      000000E1H   SFRSYM    DATA     BYTE      XBR0
      000000B9H   SFRSYM    DATA     BYTE      SADEN0
      000000E2H   SFRSYM    DATA     BYTE      XBR1
      000000A2H   SFRSYM    DATA     BYTE      EMI0CN
      000000E3H   SFRSYM    DATA     BYTE      XBR2
      00000088H   SFRSYM    DATA     BIT       FLHBUSY
LX51 LINKER/LOCATER V4.41                                                             06/21/2011  10:49:25  PAGE 17


      000000D1H   SFRSYM    DATA     BYTE      REF0CN
      000000A9H   SFRSYM    DATA     BYTE      SADDR0
      000000BAH   SFRSYM    DATA     BYTE      AMX0CF
      000000E8H.5 SFRSYM    DATA     BIT       AD0INT
      000000CBH   SFRSYM    DATA     BYTE      RCAP2H
      000000A2H   SFRSYM    DATA     BYTE      CCH0TN
      00000086H   SFRSYM    DATA     BYTE      SFRLAST
      000000B8H.4 SFRSYM    DATA     BIT       PS
      000000CBH   SFRSYM    DATA     BYTE      RCAP3H
      000000BAH   SFRSYM    DATA     BYTE      AMX2CF
      00000081H   SFRSYM    DATA     BYTE      SP
      000000E8H.5 SFRSYM    DATA     BIT       AD2INT
      000000CBH   SFRSYM    DATA     BYTE      RCAP4H
      000000A1H   SFRSYM    DATA     BYTE      EMI0TC
      000000D0H.2 SFRSYM    DATA     BIT       OV
      000000C0H   SFRSYM    DATA     BYTE      SMB0CN
      000000CCH   SFRSYM    DATA     WORD      TMR2
      00000088H.5 SFRSYM    DATA     BIT       CP0RIF
      000000CAH   SFRSYM    DATA     BYTE      RCAP2L
      000000B0H.1 SFRSYM    DATA     BIT       WP
      000000CCH   SFRSYM    DATA     WORD      TMR3
      000000F8H.5 SFRSYM    DATA     BIT       MODF
      00000088H.5 SFRSYM    DATA     BIT       CP1RIF
      000000CAH   SFRSYM    DATA     BYTE      RCAP3L
      000000CCH   SFRSYM    DATA     WORD      TMR4
      000000CAH   SFRSYM    DATA     BYTE      RCAP4L
      000000CFH   SFRSYM    DATA     BYTE      SMB0CR
      00000089H   SFRSYM    DATA     BYTE      CPT0MD
      00000088H   SFRSYM    DATA     BYTE      CPT0CN
      00000098H.7 SFRSYM    DATA     BIT       S1MODE
      000000ADH   SFRSYM    DATA     BYTE      P1MDIN
      00000089H   SFRSYM    DATA     BYTE      PLL0CN
      00000089H   SFRSYM    DATA     BYTE      CPT1MD
      00000088H   SFRSYM    DATA     BYTE      CPT1CN
      00000085H   SFRSYM    DATA     BYTE      SFRNEXT
      000000F8H   SFRSYM    DATA     BYTE      SPI0CN
      000000C9H   SFRSYM    DATA     BYTE      TMR2CF
      000000C9H   SFRSYM    DATA     BYTE      TMR3CF
      00000087H   SFRSYM    DATA     BYTE      PCON
      000000C9H   SFRSYM    DATA     BYTE      TMR4CF
      000000F8H.7 SFRSYM    DATA     BIT       SPIF
      00000089H   SFRSYM    DATA     BYTE      TMOD
      00000088H   SFRSYM    DATA     BYTE      TCON
      000000F8H.6 SFRSYM    DATA     BIT       WCOL
      000000F8H.2 SFRSYM    DATA     BIT       NSSMD0
      000000BBH   SFRSYM    DATA     BYTE      AMX0SL
      000000F8H.3 SFRSYM    DATA     BIT       NSSMD1
      000000C8H   SFRSYM    DATA     BYTE      TMR2CN
      000000C8H   SFRSYM    DATA     BYTE      TMR3CN
      000000BBH   SFRSYM    DATA     BYTE      AMX2SL
      000000C8H   SFRSYM    DATA     BYTE      TMR4CN
      00000088H.6 SFRSYM    DATA     BIT       CP0OUT
      00000088H.6 SFRSYM    DATA     BIT       CP1OUT
      00000088H.1 SFRSYM    DATA     BIT       IE0
      00000088H.3 SFRSYM    DATA     BIT       IE1
      0000008BH   SFRSYM    DATA     BYTE      OSCICL
      00000097H   SFRSYM    DATA     BYTE      CLKSEL
      000000F0H   SFRSYM    DATA     BYTE      B
      000000D3H   SFRSYM    DATA     BYTE      DAC0H
      000000BFH   SFRSYM    DATA     BYTE      ADC0H
      000000B1H   SFRSYM    DATA     BYTE      PSBANK
      0000008AH   SFRSYM    DATA     BYTE      OSCICN
      000000D3H   SFRSYM    DATA     BYTE      DAC1H
      000000C0H.1 SFRSYM    DATA     BIT       SMBFTE
      000000C0H.7 SFRSYM    DATA     BIT       BUSY
LX51 LINKER/LOCATER V4.41                                                             06/21/2011  10:49:25  PAGE 18


      000000D2H   SFRSYM    DATA     BYTE      DAC0L
      000000BEH   SFRSYM    DATA     BYTE      ADC0L
      000000D2H   SFRSYM    DATA     BYTE      DAC1L
      000000E0H   SFRSYM    DATA     BYTE      ACC
      000000A8H.4 SFRSYM    DATA     BIT       ES0
      000000E8H.7 SFRSYM    DATA     BIT       AD0EN
      000000C8H.1 SFRSYM    DATA     BIT       CT2
      000000A8H.1 SFRSYM    DATA     BIT       ET0
      000000C8H.1 SFRSYM    DATA     BIT       CT3
      000000A8H.3 SFRSYM    DATA     BIT       ET1
      00000088H.5 SFRSYM    DATA     BIT       TF0
      000000E8H.7 SFRSYM    DATA     BIT       AD2EN
      000000C8H.1 SFRSYM    DATA     BIT       CT4
      000000A8H.5 SFRSYM    DATA     BIT       ET2
      00000098H   SFRSYM    DATA     BIT       RI0
      00000088H.7 SFRSYM    DATA     BIT       TF1
      000000C8H.7 SFRSYM    DATA     BIT       TF2
      000000C0H   SFRSYM    DATA     BIT       SMBTOE
      00000098H   SFRSYM    DATA     BIT       RI1
      0000008CH   SFRSYM    DATA     BYTE      TH0
      000000C8H.7 SFRSYM    DATA     BIT       TF3
      000000A8H   SFRSYM    DATA     BIT       EX0
      00000098H.1 SFRSYM    DATA     BIT       TI0
      00000088H   SFRSYM    DATA     BIT       IT0
      000000FAH   SFRSYM    DATA     BYTE      PCA0H
      0000008DH   SFRSYM    DATA     BYTE      TH1
      000000C8H.7 SFRSYM    DATA     BIT       TF4
      000000A8H.2 SFRSYM    DATA     BIT       EX1
      00000098H.1 SFRSYM    DATA     BIT       TI1
      00000088H.2 SFRSYM    DATA     BIT       IT1
      000000D0H   SFRSYM    DATA     BIT       P
      0000008CH   SFRSYM    DATA     BYTE      OSCXCN
      0000008AH   SFRSYM    DATA     BYTE      TL0
      00000088H   SFRSYM    DATA     BYTE      FLSTAT
      000000F9H   SFRSYM    DATA     BYTE      PCA0L
      0000008BH   SFRSYM    DATA     BYTE      TL1
      000000A0H.6 SFRSYM    DATA     BIT       bitStart
      000000B8H.1 SFRSYM    DATA     BIT       PT0
      000000B0H.2 SFRSYM    DATA     BIT       RESET_FLASH
      000000D0H.3 SFRSYM    DATA     BIT       RS0
      000000B8H.3 SFRSYM    DATA     BIT       PT1
      000000B0H.6 SFRSYM    DATA     BIT       rd
      000000D0H.4 SFRSYM    DATA     BIT       RS1
      000000B8H.5 SFRSYM    DATA     BIT       PT2
      00000088H.4 SFRSYM    DATA     BIT       TR0
      000000B0H.4 SFRSYM    DATA     BIT       re
      000000E8H.6 SFRSYM    DATA     BIT       AD0TM
      00000088H.7 SFRSYM    DATA     BIT       CP0EN
      00000088H.6 SFRSYM    DATA     BIT       TR1
      000000C8H.2 SFRSYM    DATA     BIT       TR2
      000000B8H   SFRSYM    DATA     BIT       PX0
      00000088H.7 SFRSYM    DATA     BIT       CP1EN
      000000CAH   SFRSYM    DATA     WORD      RCAP2
      000000E8H.6 SFRSYM    DATA     BIT       AD2TM
      000000C8H.2 SFRSYM    DATA     BIT       TR3
      000000B8H.2 SFRSYM    DATA     BIT       PX1
      000000CAH   SFRSYM    DATA     WORD      RCAP3
      000000C8H.2 SFRSYM    DATA     BIT       TR4
      000000CAH   SFRSYM    DATA     WORD      RCAP4
      000000B0H.3 SFRSYM    DATA     BIT       we
      00000083H   SFRSYM    DATA     BYTE      DPH
      000000C5H   SFRSYM    DATA     BYTE      ADC0GTH
      00000082H   SFRSYM    DATA     BYTE      DPL
      000000C4H   SFRSYM    DATA     BYTE      ADC0GTL
      00000099H   SFRSYM    DATA     BYTE      SBUF0
LX51 LINKER/LOCATER V4.41                                                             06/21/2011  10:49:25  PAGE 19


      000000C7H   SFRSYM    DATA     BYTE      ADC0LTH
      00000099H   SFRSYM    DATA     BYTE      SBUF1
      000000C8H.3 SFRSYM    DATA     BIT       EXEN2
      000000EFH   SFRSYM    DATA     BYTE      RSTSRC
      000000B7H   SFRSYM    DATA     BYTE      FLACL
      000000C8H.3 SFRSYM    DATA     BIT       EXEN3
      000000C8H   SFRSYM    DATA     BIT       CPRL2
      00000088H   SFRSYM    DATA     BIT       CP0HYN0
      00000098H   SFRSYM    DATA     BYTE      SCON0
      000000C8H.3 SFRSYM    DATA     BIT       EXEN4
      000000C8H   SFRSYM    DATA     BIT       CPRL3
      00000088H   SFRSYM    DATA     BIT       CP1HYN0
      00000088H.1 SFRSYM    DATA     BIT       CP0HYN1
      00000098H   SFRSYM    DATA     BYTE      SCON1
      000000C8H   SFRSYM    DATA     BIT       CPRL4
      00000088H.1 SFRSYM    DATA     BIT       CP1HYN1
      00000088H.2 SFRSYM    DATA     BIT       CP0HYP0
      000000C6H   SFRSYM    DATA     BYTE      ADC0LTL
      00000088H.2 SFRSYM    DATA     BIT       CP1HYP0
      00000088H.3 SFRSYM    DATA     BIT       CP0HYP1
      000000C0H.5 SFRSYM    DATA     BIT       STA
      00000088H.3 SFRSYM    DATA     BIT       CP1HYP1
      000000B0H.5 SFRSYM    DATA     BIT       wr
      000000C3H   SFRSYM    DATA     BYTE      SMB0ADR
      00000091H   SFRSYM    DATA     BYTE      SSTA0
      000000C2H   SFRSYM    DATA     BYTE      SMB0DAT
      000000CDH   SFRSYM    DATA     BYTE      TMR2H
      0000009AH   SFRSYM    DATA     BYTE      SPI0CFG
      000000B0H.3 SFRSYM    DATA     BIT       RDY
      000000CDH   SFRSYM    DATA     BYTE      TMR3H
      0000008EH   SFRSYM    DATA     BYTE      CKCON
      000000CDH   SFRSYM    DATA     BYTE      TMR4H
      000000F8H.4 SFRSYM    DATA     BIT       RXOVRN
      000000CCH   SFRSYM    DATA     BYTE      TMR2L
      000000CCH   SFRSYM    DATA     BYTE      TMR3L
      000000E8H   SFRSYM    DATA     BIT       AD0LJST
      000000CCH   SFRSYM    DATA     BYTE      TMR4L
      000000D0H.5 SFRSYM    DATA     BIT       F0
      000000B7H   SFRSYM    DATA     BYTE      FLSCL
      000000E8H.2 SFRSYM    DATA     BIT       AD0CM0
      000000D0H.1 SFRSYM    DATA     BIT       F1
      000000C0H.4 SFRSYM    DATA     BIT       STO
      000000C0H.6 SFRSYM    DATA     BIT       ENSMB
      000000E8H.3 SFRSYM    DATA     BIT       AD0CM1
      0000009BH   SFRSYM    DATA     BYTE      SPI0DAT
      000000D2H   SFRSYM    DATA     WORD      DAC0
      000000BEH   SFRSYM    DATA     WORD      ADC0
      000000E8H.1 SFRSYM    DATA     BIT       AD2CM0
      000000D5H   SFRSYM    DATA     WORD      DAC1
      000000E8H.2 SFRSYM    DATA     BIT       AD2CM1
      000000E8H.1 SFRSYM    DATA     BIT       AD0WINT
      000000E8H.3 SFRSYM    DATA     BIT       AD2CM2
      000000E8H.4 SFRSYM    DATA     BIT       AD0BUSY
      000000D0H   SFRSYM    DATA     BYTE      PSW
      000000BEH   SFRSYM    DATA     BYTE      ADC2
      000000E8H   SFRSYM    DATA     BIT       AD2WINT
      000000E8H.4 SFRSYM    DATA     BIT       AD2BUSY
      000000D8H   SFRSYM    DATA     BIT       CCF0
      00000098H.2 SFRSYM    DATA     BIT       RB80
      000000C1H   SFRSYM    DATA     BYTE      SMB0STA
      000000A0H.7 SFRSYM    DATA     BIT       int1
      000000D8H.1 SFRSYM    DATA     BIT       CCF1
      00000098H.2 SFRSYM    DATA     BIT       RB81
      0000008DH   SFRSYM    DATA     BYTE      PLL0DIV

LX51 LINKER/LOCATER V4.41                                                             06/21/2011  10:49:25  PAGE 20


      010000A6H   BLOCK     CODE     ---       LVL=0
      010000A6H   BLOCK     CODE     NEAR LAB  LVL=1
      02000779H   SYMBOL    XDATA    ---       RK_code
      02000793H   SYMBOL    XDATA    CHAR      nByte
      02000794H   SYMBOL    XDATA    CHAR      KontrSumma
      02000795H   SYMBOL    XDATA    CHAR      temp1
      02000796H   SYMBOL    XDATA    CHAR      NPackage
      02000797H   SYMBOL    XDATA    FLOAT     angle
      0200079BH   SYMBOL    XDATA    FLOAT     tmp
      0200079FH   SYMBOL    XDATA    FLOAT     napr_vetv_mar
      020007A3H   SYMBOL    XDATA    FLOAT     otkl_ot_mar
      020007A7H   SYMBOL    XDATA    FLOAT     dz
      020007ABH   SYMBOL    XDATA    FLOAT     dx
      020007AFH   SYMBOL    XDATA    FLOAT     dz_pr
      020007B3H   SYMBOL    XDATA    FLOAT     dx_pr
      00000023H.6 SYMBOL    BIT      BIT       ValidGPS
      00000023H.7 SYMBOL    BIT      BIT       flPoint
      020007B7H   SYMBOL    XDATA    BYTE      i
      020007B8H   SYMBOL    XDATA    BYTE      i_comma
      020007B9H   SYMBOL    XDATA    ---       tmpGPS
      020007BFH   SYMBOL    XDATA    BYTE      nLetter
      020007C0H   SYMBOL    XDATA    DWORD     temp_koord
      020007C4H   SYMBOL    XDATA    FLOAT     delta_Vy
      010009DBH   SYMBOL    CODE     ---       start
      ---         BLOCKEND  ---      ---       LVL=1
      010000A6H   LINE      CODE     ---       #209
      010000A6H   LINE      CODE     ---       #210
      010000A6H   LINE      CODE     ---       #212
      010000ADH   LINE      CODE     ---       #217
      010000B3H   LINE      CODE     ---       #222
      010000B6H   LINE      CODE     ---       #223
      010000BCH   LINE      CODE     ---       #226
      010000BFH   LINE      CODE     ---       #228
      010000C2H   LINE      CODE     ---       #230
      010000C5H   LINE      CODE     ---       #231
      010000C8H   LINE      CODE     ---       #232
      010000CBH   LINE      CODE     ---       #233
      010000CEH   LINE      CODE     ---       #234
      010000D1H   LINE      CODE     ---       #235
      010000D4H   LINE      CODE     ---       #236
      010000D7H   LINE      CODE     ---       #247
      010000DAH   LINE      CODE     ---       #249
      010000E0H   LINE      CODE     ---       #282
      010000F6H   LINE      CODE     ---       #283
      010000F6H   LINE      CODE     ---       #285
      010000F6H   LINE      CODE     ---       #287
      010000F6H   LINE      CODE     ---       #289
      0100010FH   LINE      CODE     ---       #290
      0100012CH   LINE      CODE     ---       #291
      01000139H   LINE      CODE     ---       #292
      01000145H   LINE      CODE     ---       #293
      01000151H   LINE      CODE     ---       #295
      0100015AH   LINE      CODE     ---       #296
      01000164H   LINE      CODE     ---       #297
      0100016AH   LINE      CODE     ---       #299
      0100016FH   LINE      CODE     ---       #301
      01000183H   LINE      CODE     ---       #302
      0100018DH   LINE      CODE     ---       #303
      01000199H   LINE      CODE     ---       #304
      010001A3H   LINE      CODE     ---       #305
      010001B7H   LINE      CODE     ---       #307
      010001D2H   LINE      CODE     ---       #309
      010001D7H   LINE      CODE     ---       #310
      010001DDH   LINE      CODE     ---       #311
      010001E7H   LINE      CODE     ---       #312
LX51 LINKER/LOCATER V4.41                                                             06/21/2011  10:49:25  PAGE 21


      01000223H   LINE      CODE     ---       #313
      01000223H   LINE      CODE     ---       #314
      01000225H   LINE      CODE     ---       #316
      01000225H   LINE      CODE     ---       #317
      01000225H   LINE      CODE     ---       #318
      0100022AH   LINE      CODE     ---       #321
      01000234H   LINE      CODE     ---       #322
      01000238H   LINE      CODE     ---       #324
      0100023EH   LINE      CODE     ---       #325
      01000240H   LINE      CODE     ---       #330
      01000279H   LINE      CODE     ---       #331
      01000279H   LINE      CODE     ---       #332
      01000291H   LINE      CODE     ---       #333
      01000291H   LINE      CODE     ---       #334
      01000295H   LINE      CODE     ---       #335
      01000297H   LINE      CODE     ---       #336
      0100029EH   LINE      CODE     ---       #337
      010002A5H   LINE      CODE     ---       #339
      010002AAH   LINE      CODE     ---       #340
      010002C2H   LINE      CODE     ---       #341
      010002D9H   LINE      CODE     ---       #342
      010002F3H   LINE      CODE     ---       #343
      0100030DH   LINE      CODE     ---       #344
      0100030DH   LINE      CODE     ---       #345
      01000325H   LINE      CODE     ---       #347
      01000330H   LINE      CODE     ---       #348
      01000333H   LINE      CODE     ---       #349
      0100035FH   LINE      CODE     ---       #350
      01000383H   LINE      CODE     ---       #352
      01000395H   LINE      CODE     ---       #353
      01000395H   LINE      CODE     ---       #354
      0100039EH   LINE      CODE     ---       #355
      0100039EH   LINE      CODE     ---       #356
      010003A4H   LINE      CODE     ---       #357
      010003A4H   LINE      CODE     ---       #358
      010003A6H   LINE      CODE     ---       #359
      010003B6H   LINE      CODE     ---       #360
      010003CCH   LINE      CODE     ---       #361
      010003D6H   LINE      CODE     ---       #362
      010003E3H   LINE      CODE     ---       #363
      010003F7H   LINE      CODE     ---       #364
      010003FEH   LINE      CODE     ---       #365
      010003FEH   LINE      CODE     ---       #366
      01000401H   LINE      CODE     ---       #367
      01000409H   LINE      CODE     ---       #368
      01000409H   LINE      CODE     ---       #369
      01000416H   LINE      CODE     ---       #370
      01000416H   LINE      CODE     ---       #371
      01000418H   LINE      CODE     ---       #372
      0100041BH   LINE      CODE     ---       #373
      0100041EH   LINE      CODE     ---       #374
      01000426H   LINE      CODE     ---       #375
      01000426H   LINE      CODE     ---       #376
      01000426H   LINE      CODE     ---       #377
      01000426H   LINE      CODE     ---       #378
      01000426H   LINE      CODE     ---       #379
      01000428H   LINE      CODE     ---       #380
      0100042CH   LINE      CODE     ---       #381
      0100042CH   LINE      CODE     ---       #382
      0100042EH   LINE      CODE     ---       #383
      01000430H   LINE      CODE     ---       #384
      01000437H   LINE      CODE     ---       #385
      0100043AH   LINE      CODE     ---       #386
      01000442H   LINE      CODE     ---       #387
      01000442H   LINE      CODE     ---       #388
LX51 LINKER/LOCATER V4.41                                                             06/21/2011  10:49:25  PAGE 22


      01000448H   LINE      CODE     ---       #389
      0100044CH   LINE      CODE     ---       #390
      01000458H   LINE      CODE     ---       #391
      0100045BH   LINE      CODE     ---       #393
      0100045DH   LINE      CODE     ---       #394
      01000464H   LINE      CODE     ---       #395
      0100046CH   LINE      CODE     ---       #396
      0100046FH   LINE      CODE     ---       #397
      01000471H   LINE      CODE     ---       #398
      01000476H   LINE      CODE     ---       #400
      0100047AH   LINE      CODE     ---       #401
      0100049BH   LINE      CODE     ---       #402
      010004BBH   LINE      CODE     ---       #403
      010004DFH   LINE      CODE     ---       #404
      010004E3H   LINE      CODE     ---       #405
      010004E6H   LINE      CODE     ---       #406
      010004EEH   LINE      CODE     ---       #407
      010004EEH   LINE      CODE     ---       #408
      010004F0H   LINE      CODE     ---       #409
      010004F5H   LINE      CODE     ---       #410
      01000506H   LINE      CODE     ---       #411
      0100053BH   LINE      CODE     ---       #412
      0100053EH   LINE      CODE     ---       #413
      01000546H   LINE      CODE     ---       #414
      01000546H   LINE      CODE     ---       #415
      01000548H   LINE      CODE     ---       #416
      0100054CH   LINE      CODE     ---       #417
      0100054FH   LINE      CODE     ---       #418
      01000570H   LINE      CODE     ---       #419
      01000590H   LINE      CODE     ---       #420
      010005A4H   LINE      CODE     ---       #421
      010005A7H   LINE      CODE     ---       #422
      010005A7H   LINE      CODE     ---       #423
      010005AAH   LINE      CODE     ---       #424
      010005B2H   LINE      CODE     ---       #425
      010005B2H   LINE      CODE     ---       #426
      010005C5H   LINE      CODE     ---       #427
      010005C5H   LINE      CODE     ---       #428
      010005D0H   LINE      CODE     ---       #429
      010005F0H   LINE      CODE     ---       #430
      010005F0H   LINE      CODE     ---       #431
      010005F3H   LINE      CODE     ---       #432
      010005F6H   LINE      CODE     ---       #433
      01000602H   LINE      CODE     ---       #434
      01000602H   LINE      CODE     ---       #435
      01000604H   LINE      CODE     ---       #436
      0100060DH   LINE      CODE     ---       #437
      0100061AH   LINE      CODE     ---       #438
      0100061AH   LINE      CODE     ---       #439
      01000622H   LINE      CODE     ---       #440
      01000646H   LINE      CODE     ---       #441
      01000666H   LINE      CODE     ---       #442
      0100068AH   LINE      CODE     ---       #443
      010006A7H   LINE      CODE     ---       #444
      010006A7H   LINE      CODE     ---       #445
      010006AAH   LINE      CODE     ---       #446
      010006AEH   LINE      CODE     ---       #447
      010006AEH   LINE      CODE     ---       #448
      010006B0H   LINE      CODE     ---       #453
      010006B8H   LINE      CODE     ---       #454
      010006BBH   LINE      CODE     ---       #455
      010006C3H   LINE      CODE     ---       #456
      010006C3H   LINE      CODE     ---       #457
      010006C5H   LINE      CODE     ---       #458
      010006CDH   LINE      CODE     ---       #459
LX51 LINKER/LOCATER V4.41                                                             06/21/2011  10:49:25  PAGE 23


      010006D1H   LINE      CODE     ---       #460
      010006D4H   LINE      CODE     ---       #461
      010006D8H   LINE      CODE     ---       #462
      010006D8H   LINE      CODE     ---       #463
      010006DAH   LINE      CODE     ---       #465
      010006DDH   LINE      CODE     ---       #466
      010006E5H   LINE      CODE     ---       #467
      010006E5H   LINE      CODE     ---       #468
      010006E7H   LINE      CODE     ---       #469
      010006EFH   LINE      CODE     ---       #470
      010006F2H   LINE      CODE     ---       #471
      010006F7H   LINE      CODE     ---       #472
      010006F7H   LINE      CODE     ---       #473
      010006F9H   LINE      CODE     ---       #474
      010006FBH   LINE      CODE     ---       #475
      010006FDH   LINE      CODE     ---       #476
      0100070BH   LINE      CODE     ---       #477
      01000727H   LINE      CODE     ---       #478
      01000734H   LINE      CODE     ---       #479
      0100074FH   LINE      CODE     ---       #480
      01000759H   LINE      CODE     ---       #481
      0100075CH   LINE      CODE     ---       #482
      01000764H   LINE      CODE     ---       #483
      01000764H   LINE      CODE     ---       #484
      01000766H   LINE      CODE     ---       #485
      0100076EH   LINE      CODE     ---       #486
      01000771H   LINE      CODE     ---       #487
      01000775H   LINE      CODE     ---       #488
      01000775H   LINE      CODE     ---       #489
      01000777H   LINE      CODE     ---       #490
      0100077FH   LINE      CODE     ---       #491
      01000782H   LINE      CODE     ---       #492
      0100078DH   LINE      CODE     ---       #493
      0100078DH   LINE      CODE     ---       #494
      0100078FH   LINE      CODE     ---       #495
      010007A6H   LINE      CODE     ---       #496
      010007A6H   LINE      CODE     ---       #497
      010007A8H   LINE      CODE     ---       #498
      010007B8H   LINE      CODE     ---       #499
      010007B8H   LINE      CODE     ---       #500
      010007BFH   LINE      CODE     ---       #501
      010007BFH   LINE      CODE     ---       #502
      010007D3H   LINE      CODE     ---       #503
      010007E7H   LINE      CODE     ---       #505
      010007EFH   LINE      CODE     ---       #506
      010007F8H   LINE      CODE     ---       #507
      01000809H   LINE      CODE     ---       #508
      01000809H   LINE      CODE     ---       #509
      0100080CH   LINE      CODE     ---       #511
      01000834H   LINE      CODE     ---       #512
      01000834H   LINE      CODE     ---       #513
      0100083CH   LINE      CODE     ---       #514
      01000846H   LINE      CODE     ---       #515
      01000846H   LINE      CODE     ---       #516
      0100085FH   LINE      CODE     ---       #517
      01000864H   LINE      CODE     ---       #518
      01000897H   LINE      CODE     ---       #519
      0100089AH   LINE      CODE     ---       #520
      0100089AH   LINE      CODE     ---       #521
      010008B2H   LINE      CODE     ---       #522
      010008F3H   LINE      CODE     ---       #523
      010008F5H   LINE      CODE     ---       #524
      010008F5H   LINE      CODE     ---       #526
      01000932H   LINE      CODE     ---       #528
      01000938H   LINE      CODE     ---       #529
LX51 LINKER/LOCATER V4.41                                                             06/21/2011  10:49:25  PAGE 24


      01000945H   LINE      CODE     ---       #530
      01000972H   LINE      CODE     ---       #531
      0100097CH   LINE      CODE     ---       #532
      0100098EH   LINE      CODE     ---       #534
      01000991H   LINE      CODE     ---       #536
      01000993H   LINE      CODE     ---       #537
      0100099AH   LINE      CODE     ---       #538
      010009A2H   LINE      CODE     ---       #539
      010009A5H   LINE      CODE     ---       #540
      010009A7H   LINE      CODE     ---       #541
      010009A7H   LINE      CODE     ---       #542
      010009A7H   LINE      CODE     ---       #543
      010009ADH   LINE      CODE     ---       #544
      010009B5H   LINE      CODE     ---       #545
      010009B5H   LINE      CODE     ---       #546
      010009B7H   LINE      CODE     ---       #547
      010009BBH   LINE      CODE     ---       #548
      010009BBH   LINE      CODE     ---       #549
      010009BBH   LINE      CODE     ---       #552
      010009D9H   LINE      CODE     ---       #553
      010009D9H   LINE      CODE     ---       #554
      010009DBH   LINE      CODE     ---       #555
      010009DBH   LINE      CODE     ---       #556
      010009F3H   LINE      CODE     ---       #557
      01000A40H   LINE      CODE     ---       #558
      01000A58H   LINE      CODE     ---       #559
      01000A94H   LINE      CODE     ---       #561
      01000A9FH   LINE      CODE     ---       #562
      01000A9FH   LINE      CODE     ---       #563
      01000AB7H   LINE      CODE     ---       #564
      01000B04H   LINE      CODE     ---       #565
      01000B1CH   LINE      CODE     ---       #566
      01000B58H   LINE      CODE     ---       #568
      01000BA4H   LINE      CODE     ---       #569
      01000BD9H   LINE      CODE     ---       #570
      01000BD9H   LINE      CODE     ---       #571
      01000BDBH   LINE      CODE     ---       #572
      01000BFCH   LINE      CODE     ---       #573
      01000C1CH   LINE      CODE     ---       #574
      01000C40H   LINE      CODE     ---       #575
      01000C60H   LINE      CODE     ---       #579
      01000C63H   LINE      CODE     ---       #580
      01000C63H   LINE      CODE     ---       #582
      01000CC1H   LINE      CODE     ---       #583
      01000CCDH   LINE      CODE     ---       #585
      01000D2CH   LINE      CODE     ---       #587
      01000D68H   LINE      CODE     ---       #588
      01000D74H   LINE      CODE     ---       #590
      01000DA0H   LINE      CODE     ---       #591
      01000DC5H   LINE      CODE     ---       #593
      01000DEDH   LINE      CODE     ---       #594
      01000E16H   LINE      CODE     ---       #595
      01000E1DH   LINE      CODE     ---       #596
      01000E7AH   LINE      CODE     ---       #597
      01000EEAH   LINE      CODE     ---       #598
      01000EEAH   LINE      CODE     ---       #599
      01000EFCH   LINE      CODE     ---       #600
      01000F1EH   LINE      CODE     ---       #601
      01000F5AH   LINE      CODE     ---       #602
      01000FA3H   LINE      CODE     ---       #604
      01000FC0H   LINE      CODE     ---       #605
      01000FE1H   LINE      CODE     ---       #606
      01000FFCH   LINE      CODE     ---       #607
      0100101DH   LINE      CODE     ---       #609
      0100103CH   LINE      CODE     ---       #610
LX51 LINKER/LOCATER V4.41                                                             06/21/2011  10:49:25  PAGE 25


      01001058H   LINE      CODE     ---       #611
      01001064H   LINE      CODE     ---       #612
      0100107EH   LINE      CODE     ---       #613
      01001088H   LINE      CODE     ---       #614
      0100109EH   LINE      CODE     ---       #615
      0100109EH   LINE      CODE     ---       #618
      010010D7H   LINE      CODE     ---       #619
      010010D7H   LINE      CODE     ---       #620
      010010ECH   LINE      CODE     ---       #621
      010010ECH   LINE      CODE     ---       #622
      010010F1H   LINE      CODE     ---       #623
      010010F4H   LINE      CODE     ---       #624
      010010FFH   LINE      CODE     ---       #625
      01001101H   LINE      CODE     ---       #626
      0100111CH   LINE      CODE     ---       #627
      01001121H   LINE      CODE     ---       #628
      0100113FH   LINE      CODE     ---       #629
      01001144H   LINE      CODE     ---       #630
      01001163H   LINE      CODE     ---       #631
      0100116CH   LINE      CODE     ---       #632
      01001187H   LINE      CODE     ---       #633
      01001187H   LINE      CODE     ---       #634
      0100118DH   LINE      CODE     ---       #635
      01001192H   LINE      CODE     ---       #636
      01001194H   LINE      CODE     ---       #637
      01001197H   LINE      CODE     ---       #638
      010011AFH   LINE      CODE     ---       #639
      010011AFH   LINE      CODE     ---       #640
      010011B5H   LINE      CODE     ---       #641
      010011BAH   LINE      CODE     ---       #642
      010011BCH   LINE      CODE     ---       #643
      010011BFH   LINE      CODE     ---       #644
      010011C7H   LINE      CODE     ---       #645
      010011C7H   LINE      CODE     ---       #646
      010011CBH   LINE      CODE     ---       #647
      010011D0H   LINE      CODE     ---       #649
      010011D0H   LINE      CODE     ---       #650
      010011D2H   LINE      CODE     ---       #651
      010011D4H   LINE      CODE     ---       #652
      010011D6H   LINE      CODE     ---       #653
      010011D6H   LINE      CODE     ---       #654
      010011D6H   LINE      CODE     ---       #655
      010011D9H   LINE      CODE     ---       #656
      010011DFH   LINE      CODE     ---       #657
      010011DFH   LINE      CODE     ---       #658
      010011E4H   LINE      CODE     ---       #659
      010011E4H   LINE      CODE     ---       #660
      010011FCH   LINE      CODE     ---       #661
      010011FCH   LINE      CODE     ---       #662
      010011FCH   LINE      CODE     ---       #663
      010011FCH   LINE      CODE     ---       #664
      010011FFH   LINE      CODE     ---       #665
      01001205H   LINE      CODE     ---       #666
      01001205H   LINE      CODE     ---       #667
      01001218H   LINE      CODE     ---       #668
      01001220H   LINE      CODE     ---       #669
      01001220H   LINE      CODE     ---       #670
      01001220H   LINE      CODE     ---       #671
      01001220H   LINE      CODE     ---       #672
      01001220H   LINE      CODE     ---       #673
      01001223H   LINE      CODE     ---       #674
      0100122FH   LINE      CODE     ---       #675
      0100122FH   LINE      CODE     ---       #676
      01001234H   LINE      CODE     ---       #677
      01001234H   LINE      CODE     ---       #678
LX51 LINKER/LOCATER V4.41                                                             06/21/2011  10:49:25  PAGE 26


      01001234H   LINE      CODE     ---       #679
      01001234H   LINE      CODE     ---       #680
      01001237H   LINE      CODE     ---       #687
      01001242H   LINE      CODE     ---       #688
      01001242H   LINE      CODE     ---       #689
      01001281H   LINE      CODE     ---       #693
      0100129BH   LINE      CODE     ---       #694
      010012B8H   LINE      CODE     ---       #696
      010012D7H   LINE      CODE     ---       #697
      010012D7H   LINE      CODE     ---       #698
      010012DAH   LINE      CODE     ---       #699
      010012E5H   LINE      CODE     ---       #700
      010012E5H   LINE      CODE     ---       #701
      010012FDH   LINE      CODE     ---       #702
      010012FDH   LINE      CODE     ---       #703
      010012FFH   LINE      CODE     ---       #704
      01001304H   LINE      CODE     ---       #705
      01001307H   LINE      CODE     ---       #706
      0100130DH   LINE      CODE     ---       #707
      0100130DH   LINE      CODE     ---       #708
      01001320H   LINE      CODE     ---       #709
      01001328H   LINE      CODE     ---       #710
      01001328H   LINE      CODE     ---       #711
      01001333H   LINE      CODE     ---       #712
      01001348H   LINE      CODE     ---       #713
      01001361H   LINE      CODE     ---       #714
      01001363H   LINE      CODE     ---       #715
      0100136FH   LINE      CODE     ---       #716
      0100136FH   LINE      CODE     ---       #717
      0100137DH   LINE      CODE     ---       #718
      01001389H   LINE      CODE     ---       #719
      010013CFH   LINE      CODE     ---       #720
      010013CFH   LINE      CODE     ---       #721
      010013D2H   LINE      CODE     ---       #723
      010013D2H   LINE      CODE     ---       #724
      010013D2H   LINE      CODE     ---       #725
      010013D2H   LINE      CODE     ---       #726
      010013D2H   LINE      CODE     ---       #727
      010013D5H   LINE      CODE     ---       #728
      010013E0H   LINE      CODE     ---       #729
      010013E0H   LINE      CODE     ---       #730
      0100141FH   LINE      CODE     ---       #734
      01001439H   LINE      CODE     ---       #735
      01001455H   LINE      CODE     ---       #737
      01001471H   LINE      CODE     ---       #738
      01001474H   LINE      CODE     ---       #739
      0100147CH   LINE      CODE     ---       #740
      0100147CH   LINE      CODE     ---       #741
      01001493H   LINE      CODE     ---       #742
      01001493H   LINE      CODE     ---       #743
      01001495H   LINE      CODE     ---       #744
      010014C3H   LINE      CODE     ---       #748
      010014C6H   LINE      CODE     ---       #749
      010014CCH   LINE      CODE     ---       #750
      010014CCH   LINE      CODE     ---       #751
      010014CCH   LINE      CODE     ---       #752
      010014CCH   LINE      CODE     ---       #753
      010014CCH   LINE      CODE     ---       #754
      010014CEH   LINE      CODE     ---       #755
      010014D9H   LINE      CODE     ---       #756
      010014D9H   LINE      CODE     ---       #757
      010014F1H   LINE      CODE     ---       #758
      010014F1H   LINE      CODE     ---       #759
      010014F3H   LINE      CODE     ---       #760
      01001504H   LINE      CODE     ---       #761
LX51 LINKER/LOCATER V4.41                                                             06/21/2011  10:49:25  PAGE 27


      0100150CH   LINE      CODE     ---       #762
      01001517H   LINE      CODE     ---       #764
      01001519H   LINE      CODE     ---       #765
      0100151BH   LINE      CODE     ---       #766
      0100151DH   LINE      CODE     ---       #767
      01001531H   LINE      CODE     ---       #771
      01001533H   LINE      CODE     ---       #772
      01001536H   LINE      CODE     ---       #773
      01001536H   LINE      CODE     ---       #774
      0100155EH   LINE      CODE     ---       #775
      0100156DH   LINE      CODE     ---       #776
      0100156DH   LINE      CODE     ---       #777
      0100156DH   LINE      CODE     ---       #778
      0100156DH   LINE      CODE     ---       #779
      01001573H   LINE      CODE     ---       #780
      0100157BH   LINE      CODE     ---       #781
      0100157BH   LINE      CODE     ---       #782
      0100157DH   LINE      CODE     ---       #783
      01001581H   LINE      CODE     ---       #784
      01001581H   LINE      CODE     ---       #785
      01001581H   LINE      CODE     ---       #788
      01001590H   LINE      CODE     ---       #789
      01001590H   LINE      CODE     ---       #790
      01001592H   LINE      CODE     ---       #791
      010015A5H   LINE      CODE     ---       #793
      010015B7H   LINE      CODE     ---       #794
      010015C4H   LINE      CODE     ---       #795
      010015DEH   LINE      CODE     ---       #796
      010015EBH   LINE      CODE     ---       #797
      01001605H   LINE      CODE     ---       #798
      01001605H   LINE      CODE     ---       #799
      0100160FH   LINE      CODE     ---       #800
      01001612H   LINE      CODE     ---       #801
      01001615H   LINE      CODE     ---       #802
      0100162FH   LINE      CODE     ---       #803
      01001635H   LINE      CODE     ---       #804
      0100164FH   LINE      CODE     ---       #805
      0100164FH   LINE      CODE     ---       #806
      01001659H   LINE      CODE     ---       #807
      0100165CH   LINE      CODE     ---       #808
      0100165EH   LINE      CODE     ---       #809
      01001678H   LINE      CODE     ---       #810
      0100167EH   LINE      CODE     ---       #811
      01001698H   LINE      CODE     ---       #812
      01001698H   LINE      CODE     ---       #813
      010016A2H   LINE      CODE     ---       #814
      010016ACH   LINE      CODE     ---       #815
      010016AFH   LINE      CODE     ---       #816
      010016C9H   LINE      CODE     ---       #817
      010016D6H   LINE      CODE     ---       #818
      010016F0H   LINE      CODE     ---       #819
      010016F0H   LINE      CODE     ---       #820
      010016FAH   LINE      CODE     ---       #821
      01001704H   LINE      CODE     ---       #822
      01001707H   LINE      CODE     ---       #823
      01001722H   LINE      CODE     ---       #824
      0100172FH   LINE      CODE     ---       #825
      01001749H   LINE      CODE     ---       #826
      01001749H   LINE      CODE     ---       #827
      01001753H   LINE      CODE     ---       #828
      0100175DH   LINE      CODE     ---       #829
      01001760H   LINE      CODE     ---       #831
      01001760H   LINE      CODE     ---       #832
      0100176AH   LINE      CODE     ---       #834
      0100177EH   LINE      CODE     ---       #835
LX51 LINKER/LOCATER V4.41                                                             06/21/2011  10:49:25  PAGE 28


      01001792H   LINE      CODE     ---       #836
      01001798H   LINE      CODE     ---       #838
      010017ACH   LINE      CODE     ---       #839
      010017C0H   LINE      CODE     ---       #840
      010017E5H   LINE      CODE     ---       #841
      010017E5H   LINE      CODE     ---       #842
      010017E5H   LINE      CODE     ---       #845
      010017F4H   LINE      CODE     ---       #846
      010017F4H   LINE      CODE     ---       #847
      010017F6H   LINE      CODE     ---       #850
      0100182DH   LINE      CODE     ---       #851
      01001847H   LINE      CODE     ---       #852
      01001860H   LINE      CODE     ---       #854
      0100186AH   LINE      CODE     ---       #855
      01001885H   LINE      CODE     ---       #856
      0100188FH   LINE      CODE     ---       #857
      01001905H   LINE      CODE     ---       #858
      01001919H   LINE      CODE     ---       #860
      01001919H   LINE      CODE     ---       #861
      01001919H   LINE      CODE     ---       #880
      01001919H   LINE      CODE     ---       #883
      0100196EH   LINE      CODE     ---       #884
      0100196EH   LINE      CODE     ---       #885
      01001971H   LINE      CODE     ---       #886
      01001971H   LINE      CODE     ---       #887
      010019ACH   LINE      CODE     ---       #888
      010019C7H   LINE      CODE     ---       #889
      010019D1H   LINE      CODE     ---       #890
      010019EDH   LINE      CODE     ---       #891
      010019EFH   LINE      CODE     ---       #893
      01001A19H   LINE      CODE     ---       #895
      01001A1CH   LINE      CODE     ---       #896
      01001A1CH   LINE      CODE     ---       #897
      01001A29H   LINE      CODE     ---       #898
      01001A2CH   LINE      CODE     ---       #900
      01001A2CH   LINE      CODE     ---       #901
      01001A76H   LINE      CODE     ---       #902
      01001AB9H   LINE      CODE     ---       #903
      01001ADCH   LINE      CODE     ---       #905
      01001B0CH   LINE      CODE     ---       #906
      01001B4FH   LINE      CODE     ---       #907
      01001B72H   LINE      CODE     ---       #908
      01001B72H   LINE      CODE     ---       #909
      01001B72H   LINE      CODE     ---       #957
      01001B78H   LINE      CODE     ---       #958
      01001B7BH   LINE      CODE     ---       #961
      01001BAEH   LINE      CODE     ---       #962
      01001BAEH   LINE      CODE     ---       #963
      01001BB0H   LINE      CODE     ---       #964
      01001BC4H   LINE      CODE     ---       #965
      01001BC6H   LINE      CODE     ---       #966
      01001BC6H   LINE      CODE     ---       #967
      01001BD2H   LINE      CODE     ---       #968
      01001BDCH   LINE      CODE     ---       #969
      01001BDCH   LINE      CODE     ---       #970
      ---         BLOCKEND  ---      ---       LVL=0

      01002FC6H   BLOCK     CODE     ---       LVL=0
      01002FC6H   BLOCK     CODE     NEAR LAB  LVL=1
      020007C8H   SYMBOL    XDATA    CHAR      i
      020007C9H   SYMBOL    XDATA    DWORD     tmp
      00000022H.0 SYMBOL    BIT      BIT       fl
      ---         BLOCKEND  ---      ---       LVL=1
      01002FC6H   LINE      CODE     ---       #975
      01002FC6H   LINE      CODE     ---       #976
LX51 LINKER/LOCATER V4.41                                                             06/21/2011  10:49:25  PAGE 29


      01002FC6H   LINE      CODE     ---       #981
      01002FCCH   LINE      CODE     ---       #982
      01002FCCH   LINE      CODE     ---       #983
      01002FF2H   LINE      CODE     ---       #984
      01003029H   LINE      CODE     ---       #987
      0100302BH   LINE      CODE     ---       #988
      01003031H   LINE      CODE     ---       #990
      01003031H   LINE      CODE     ---       #991
      01003034H   LINE      CODE     ---       #994
      0100303BH   LINE      CODE     ---       #995
      01003041H   LINE      CODE     ---       #996
      01003041H   LINE      CODE     ---       #997
      01003047H   LINE      CODE     ---       #998
      0100304DH   LINE      CODE     ---       #1000
      01003057H   LINE      CODE     ---       #1002
      0100305BH   LINE      CODE     ---       #1003
      0100305DH   LINE      CODE     ---       #1004
      0100305FH   LINE      CODE     ---       #1005
      01003061H   LINE      CODE     ---       #1006
      01003063H   LINE      CODE     ---       #1007
      01003065H   LINE      CODE     ---       #1008
      01003067H   LINE      CODE     ---       #1009
      01003069H   LINE      CODE     ---       #1013
      0100306FH   LINE      CODE     ---       #1014
      01003099H   LINE      CODE     ---       #1015
      010030C3H   LINE      CODE     ---       #1019
      010030F9H   LINE      CODE     ---       #1020
      0100312FH   LINE      CODE     ---       #1021
      01003165H   LINE      CODE     ---       #1022
      0100319BH   LINE      CODE     ---       #1023
      010031D1H   LINE      CODE     ---       #1024
      01003207H   LINE      CODE     ---       #1025
      01003228H   LINE      CODE     ---       #1026
      01003248H   LINE      CODE     ---       #1028
      01003254H   LINE      CODE     ---       #1030
      01003257H   LINE      CODE     ---       #1031
      01003267H   LINE      CODE     ---       #1032
      0100328CH   LINE      CODE     ---       #1033
      0100328FH   LINE      CODE     ---       #1034
      0100328FH   LINE      CODE     ---       #1035
      01003292H   LINE      CODE     ---       #1037
      01003292H   LINE      CODE     ---       #1038
      01003298H   LINE      CODE     ---       #1039
      010032A4H   LINE      CODE     ---       #1041
      010032CEH   LINE      CODE     ---       #1042
      010032F8H   LINE      CODE     ---       #1043
      01003322H   LINE      CODE     ---       #1044
      0100334CH   LINE      CODE     ---       #1045
      0100336CH   LINE      CODE     ---       #1046
      01003384H   LINE      CODE     ---       #1047
      01003388H   LINE      CODE     ---       #1049
      010033B8H   LINE      CODE     ---       #1050
      010033E8H   LINE      CODE     ---       #1051
      010033F0H   LINE      CODE     ---       #1052
      010033F6H   LINE      CODE     ---       #1053
      010033FCH   LINE      CODE     ---       #1054
      01003426H   LINE      CODE     ---       #1055
      0100345CH   LINE      CODE     ---       #1056
      0100347EH   LINE      CODE     ---       #1057
      01003482H   LINE      CODE     ---       #1059
      01003485H   LINE      CODE     ---       #1060
      01003495H   LINE      CODE     ---       #1061
      010034BAH   LINE      CODE     ---       #1062
      010034C1H   LINE      CODE     ---       #1063
      010034CAH   LINE      CODE     ---       #1065
LX51 LINKER/LOCATER V4.41                                                             06/21/2011  10:49:25  PAGE 30


      010034D0H   LINE      CODE     ---       #1066
      010034D0H   LINE      CODE     ---       #1067
      010034D2H   LINE      CODE     ---       #1068
      010034E6H   LINE      CODE     ---       #1069
      010034ECH   LINE      CODE     ---       #1070
      010034ECH   LINE      CODE     ---       #1071
      010034F9H   LINE      CODE     ---       #1072
      01003506H   LINE      CODE     ---       #1073
      01003513H   LINE      CODE     ---       #1074
      01003520H   LINE      CODE     ---       #1075
      0100352DH   LINE      CODE     ---       #1076
      0100353AH   LINE      CODE     ---       #1077
      01003547H   LINE      CODE     ---       #1078
      01003554H   LINE      CODE     ---       #1079
      01003561H   LINE      CODE     ---       #1080
      0100356EH   LINE      CODE     ---       #1081
      0100357BH   LINE      CODE     ---       #1082
      0100357DH   LINE      CODE     ---       #1084
      0100357DH   LINE      CODE     ---       #1085
      01003596H   LINE      CODE     ---       #1086
      010035B0H   LINE      CODE     ---       #1087
      010035C3H   LINE      CODE     ---       #1088
      010035DCH   LINE      CODE     ---       #1089
      010035DCH   LINE      CODE     ---       #1091
      010035EFH   LINE      CODE     ---       #1092
      01003618H   LINE      CODE     ---       #1093
      0100364CH   LINE      CODE     ---       #1094
      01003660H   LINE      CODE     ---       #1095
      01003669H   LINE      CODE     ---       #1096
      0100366CH   LINE      CODE     ---       #1097
      01003672H   LINE      CODE     ---       #1098
      01003672H   LINE      CODE     ---       #1099
      01003674H   LINE      CODE     ---       #1100
      01003688H   LINE      CODE     ---       #1102
      010036ADH   LINE      CODE     ---       #1103
      010036D5H   LINE      CODE     ---       #1104
      010036E8H   LINE      CODE     ---       #1105
      010036FBH   LINE      CODE     ---       #1106
      0100370EH   LINE      CODE     ---       #1107
      01003721H   LINE      CODE     ---       #1108
      01003736H   LINE      CODE     ---       #1110
      01003768H   LINE      CODE     ---       #1112
      01003774H   LINE      CODE     ---       #1113
      0100379DH   LINE      CODE     ---       #1114
      010037D1H   LINE      CODE     ---       #1115
      010037E5H   LINE      CODE     ---       #1116
      010037EEH   LINE      CODE     ---       #1117
      010037EEH   LINE      CODE     ---       #1118
      010037EEH   LINE      CODE     ---       #1119
      010037F0H   LINE      CODE     ---       #1120
      010037F2H   LINE      CODE     ---       #1121
      010037F5H   LINE      CODE     ---       #1122
      010037F7H   LINE      CODE     ---       #1124
      ---         BLOCKEND  ---      ---       LVL=0

      010046F9H   BLOCK     CODE     ---       LVL=0
      ---         BLOCKEND  ---      ---       LVL=0

      0100471DH   BLOCK     CODE     ---       LVL=0
      00000025H   SYMBOL    DATA     WORD      Data
      00000005H   SYMBOL    DATA     CHAR      i
      0100471DH   LINE      CODE     ---       #1127
      01004721H   LINE      CODE     ---       #1128
      01004721H   LINE      CODE     ---       #1129
      01004739H   LINE      CODE     ---       #1130
LX51 LINKER/LOCATER V4.41                                                             06/21/2011  10:49:25  PAGE 31


      0100475FH   LINE      CODE     ---       #1131
      ---         BLOCKEND  ---      ---       LVL=0

      010044DCH   BLOCK     CODE     ---       LVL=0
      ---         BLOCKEND  ---      ---       LVL=0

      010044EAH   BLOCK     CODE     ---       LVL=0
      00000025H   SYMBOL    DATA     DWORD     Data
      00000029H   SYMBOL    DATA     CHAR      i
      010044EAH   LINE      CODE     ---       #1134
      010044F2H   LINE      CODE     ---       #1135
      010044F2H   LINE      CODE     ---       #1136
      0100450EH   LINE      CODE     ---       #1137
      01004537H   LINE      CODE     ---       #1138
      0100455AH   LINE      CODE     ---       #1139
      01004583H   LINE      CODE     ---       #1140
      ---         BLOCKEND  ---      ---       LVL=0

      01004760H   BLOCK     CODE     ---       LVL=0
      00000025H   SYMBOL    DATA     ---       Array
      00000028H   SYMBOL    DATA     CHAR      NByteContrlSumma
      01004768H   BLOCK     CODE     NEAR LAB  LVL=1
      020007C8H   SYMBOL    XDATA    CHAR      i
      020007C9H   SYMBOL    XDATA    CHAR      KontrSumma
      ---         BLOCKEND  ---      ---       LVL=1
      01004760H   LINE      CODE     ---       #1143
      01004768H   LINE      CODE     ---       #1144
      01004768H   LINE      CODE     ---       #1145
      0100476DH   LINE      CODE     ---       #1146
      01004782H   LINE      CODE     ---       #1147
      010047A6H   LINE      CODE     ---       #1149
      010047ABH   LINE      CODE     ---       #1150
      ---         BLOCKEND  ---      ---       LVL=0

      01004070H   BLOCK     CODE     ---       LVL=0
      ---         BLOCKEND  ---      ---       LVL=0

      01004078H   BLOCK     CODE     ---       LVL=0
      00000025H   SYMBOL    DATA     ---       Array
      00000028H   SYMBOL    DATA     CHAR      n
      020007C8H   SYMBOL    XDATA    DWORD     koord
      020007CCH   SYMBOL    XDATA    DWORD     tmp
      01004080H   BLOCK     CODE     NEAR LAB  LVL=1
      020007C8H   SYMBOL    XDATA    DWORD     koord
      020007CCH   SYMBOL    XDATA    DWORD     tmp
      ---         BLOCKEND  ---      ---       LVL=1
      01004078H   LINE      CODE     ---       #1153
      01004080H   LINE      CODE     ---       #1154
      01004080H   LINE      CODE     ---       #1156
      0100409CH   LINE      CODE     ---       #1157
      010040B9H   LINE      CODE     ---       #1158
      010040EEH   LINE      CODE     ---       #1159
      01004112H   LINE      CODE     ---       #1160
      01004147H   LINE      CODE     ---       #1161
      0100416CH   LINE      CODE     ---       #1162
      010041A1H   LINE      CODE     ---       #1163
      010041AFH   LINE      CODE     ---       #1164
      ---         BLOCKEND  ---      ---       LVL=0

      01004610H   BLOCK     CODE     ---       LVL=0
      01004610H   BLOCK     CODE     NEAR LAB  LVL=1
      020007C8H   SYMBOL    XDATA    INT       n
      ---         BLOCKEND  ---      ---       LVL=1
      01004610H   LINE      CODE     ---       #1167
      01004610H   LINE      CODE     ---       #1168
LX51 LINKER/LOCATER V4.41                                                             06/21/2011  10:49:25  PAGE 32


      01004610H   LINE      CODE     ---       #1169
      01004617H   LINE      CODE     ---       #1171
      01004619H   LINE      CODE     ---       #1172
      0100461CH   LINE      CODE     ---       #1174
      0100461FH   LINE      CODE     ---       #1175
      01004622H   LINE      CODE     ---       #1176
      01004642H   LINE      CODE     ---       #1178
      01004647H   LINE      CODE     ---       #1180
      0100464AH   LINE      CODE     ---       #1181
      0100464DH   LINE      CODE     ---       #1182
      01004650H   LINE      CODE     ---       #1184
      01004652H   LINE      CODE     ---       #1185
      01004655H   LINE      CODE     ---       #1187
      01004658H   LINE      CODE     ---       #1188
      0100465BH   LINE      CODE     ---       #1189
      0100465EH   LINE      CODE     ---       #1190
      01004661H   LINE      CODE     ---       #1191
      01004664H   LINE      CODE     ---       #1192
      01004684H   LINE      CODE     ---       #1194
      01004687H   LINE      CODE     ---       #1195
      0100468CH   LINE      CODE     ---       #1197
      0100468FH   LINE      CODE     ---       #1198
      ---         BLOCKEND  ---      ---       LVL=0

      0100481AH   BLOCK     CODE     ---       LVL=0
      0100481AH   LINE      CODE     ---       #1201
      0100481AH   LINE      CODE     ---       #1202
      0100481AH   LINE      CODE     ---       #1203
      0100481DH   LINE      CODE     ---       #1204
      01004820H   LINE      CODE     ---       #1205
      01004823H   LINE      CODE     ---       #1206
      01004826H   LINE      CODE     ---       #1209
      01004829H   LINE      CODE     ---       #1210
      0100482CH   LINE      CODE     ---       #1211
      0100482EH   LINE      CODE     ---       #1212
      01004830H   LINE      CODE     ---       #1213
      01004833H   LINE      CODE     ---       #1214
      01004835H   LINE      CODE     ---       #1215
      01004837H   LINE      CODE     ---       #1216
      01004839H   LINE      CODE     ---       #1217
      0100483BH   LINE      CODE     ---       #1219
      0100483EH   LINE      CODE     ---       #1220
      ---         BLOCKEND  ---      ---       LVL=0

      010048A9H   BLOCK     CODE     ---       LVL=0
      010048A9H   LINE      CODE     ---       #1223
      010048A9H   LINE      CODE     ---       #1224
      010048A9H   LINE      CODE     ---       #1225
      010048ACH   LINE      CODE     ---       #1226
      010048AEH   LINE      CODE     ---       #1228
      010048B1H   LINE      CODE     ---       #1229
      010048B3H   LINE      CODE     ---       #1230
      010048B6H   LINE      CODE     ---       #1232
      010048B9H   LINE      CODE     ---       #1233
      010048BBH   LINE      CODE     ---       #1234
      010048BEH   LINE      CODE     ---       #1237
      ---         BLOCKEND  ---      ---       LVL=0

      0100483FH   BLOCK     CODE     ---       LVL=0
      0100483FH   LINE      CODE     ---       #1240
      0100483FH   LINE      CODE     ---       #1241
      0100483FH   LINE      CODE     ---       #1242
      01004842H   LINE      CODE     ---       #1244
      01004845H   LINE      CODE     ---       #1245
      01004848H   LINE      CODE     ---       #1246
LX51 LINKER/LOCATER V4.41                                                             06/21/2011  10:49:25  PAGE 33


      0100484BH   LINE      CODE     ---       #1248
      0100484DH   LINE      CODE     ---       #1249
      0100484FH   LINE      CODE     ---       #1250
      01004852H   LINE      CODE     ---       #1251
      01004854H   LINE      CODE     ---       #1252
      01004856H   LINE      CODE     ---       #1254
      01004859H   LINE      CODE     ---       #1255
      0100485CH   LINE      CODE     ---       #1256
      ---         BLOCKEND  ---      ---       LVL=0

      01004386H   BLOCK     CODE     ---       LVL=0
      01004399H   BLOCK     CODE     NEAR LAB  LVL=1
      020007D0H   SYMBOL    XDATA    CHAR      SFRPAGE_SAVE
      ---         BLOCKEND  ---      ---       LVL=1
      01004386H   LINE      CODE     ---       #1259
      01004399H   LINE      CODE     ---       #1261
      0100439FH   LINE      CODE     ---       #1262
      010043A2H   LINE      CODE     ---       #1263
      010043ABH   LINE      CODE     ---       #1264
      010043AEH   LINE      CODE     ---       #1266
      010043B1H   LINE      CODE     ---       #1267
      010043B1H   LINE      CODE     ---       #1268
      010043CAH   LINE      CODE     ---       #1269
      010043D5H   LINE      CODE     ---       #1270
      010043D5H   LINE      CODE     ---       #1271
      010043D7H   LINE      CODE     ---       #1272
      010043DCH   LINE      CODE     ---       #1273
      010043DCH   LINE      CODE     ---       #1274
      010043DEH   LINE      CODE     ---       #1275
      010043DEH   LINE      CODE     ---       #1276
      010043E1H   LINE      CODE     ---       #1277
      010043E1H   LINE      CODE     ---       #1278
      010043E4H   LINE      CODE     ---       #1280
      010043FFH   LINE      CODE     ---       #1281
      01004417H   LINE      CODE     ---       #1283
      01004419H   LINE      CODE     ---       #1284
      0100441BH   LINE      CODE     ---       #1285
      0100441BH   LINE      CODE     ---       #1286
      01004421H   LINE      CODE     ---       #1288
      ---         BLOCKEND  ---      ---       LVL=0

      01004879H   BLOCK     CODE     ---       LVL=0
      01004879H   LINE      CODE     ---       #1292
      01004879H   LINE      CODE     ---       #1293
      01004879H   LINE      CODE     ---       #1294
      0100487CH   LINE      CODE     ---       #1295
      0100487FH   LINE      CODE     ---       #1300
      01004882H   LINE      CODE     ---       #1301
      01004885H   LINE      CODE     ---       #1307
      01004888H   LINE      CODE     ---       #1313
      0100488BH   LINE      CODE     ---       #1314
      0100488EH   LINE      CODE     ---       #1315
      01004890H   LINE      CODE     ---       #1316
      ---         BLOCKEND  ---      ---       LVL=0

      01004690H   BLOCK     CODE     ---       LVL=0
      0100469FH   BLOCK     CODE     NEAR LAB  LVL=1
      020007D1H   SYMBOL    XDATA    CHAR      SFRPAGE_SAVE
      020007D2H   SYMBOL    XDATA    CHAR      tmp
      ---         BLOCKEND  ---      ---       LVL=1
      01004690H   LINE      CODE     ---       #1319
      0100469FH   LINE      CODE     ---       #1321
      010046A5H   LINE      CODE     ---       #1322
      010046A8H   LINE      CODE     ---       #1323
      010046B1H   LINE      CODE     ---       #1324
LX51 LINKER/LOCATER V4.41                                                             06/21/2011  10:49:25  PAGE 34


      010046B4H   LINE      CODE     ---       #1326
      010046B7H   LINE      CODE     ---       #1327
      010046B7H   LINE      CODE     ---       #1328
      010046D0H   LINE      CODE     ---       #1329
      010046DBH   LINE      CODE     ---       #1330
      010046DBH   LINE      CODE     ---       #1331
      010046DDH   LINE      CODE     ---       #1332
      010046E2H   LINE      CODE     ---       #1333
      010046E2H   LINE      CODE     ---       #1334
      010046E4H   LINE      CODE     ---       #1341
      010046E4H   LINE      CODE     ---       #1342
      010046E6H   LINE      CODE     ---       #1343
      010046ECH   LINE      CODE     ---       #1345
      ---         BLOCKEND  ---      ---       LVL=0

      0100485DH   BLOCK     CODE     ---       LVL=0
      0100485DH   LINE      CODE     ---       #1348
      0100485DH   LINE      CODE     ---       #1349
      0100485DH   LINE      CODE     ---       #1350
      01004860H   LINE      CODE     ---       #1351
      01004863H   LINE      CODE     ---       #1353
      01004866H   LINE      CODE     ---       #1354
      01004869H   LINE      CODE     ---       #1355
      0100486CH   LINE      CODE     ---       #1357
      0100486FH   LINE      CODE     ---       #1358
      01004872H   LINE      CODE     ---       #1359
      01004875H   LINE      CODE     ---       #1360
      01004878H   LINE      CODE     ---       #1361
      ---         BLOCKEND  ---      ---       LVL=0

      010047F0H   BLOCK     CODE     ---       LVL=0
      010047F0H   LINE      CODE     ---       #1364
      010047F0H   LINE      CODE     ---       #1365
      010047F0H   LINE      CODE     ---       #1366
      010047F3H   LINE      CODE     ---       #1367
      010047F6H   LINE      CODE     ---       #1368
      010047F8H   LINE      CODE     ---       #1369
      010047FBH   LINE      CODE     ---       #1370
      010047FEH   LINE      CODE     ---       #1372
      01004802H   LINE      CODE     ---       #1373
      01004808H   LINE      CODE     ---       #1375
      0100480BH   LINE      CODE     ---       #1376
      0100480EH   LINE      CODE     ---       #1377
      01004811H   LINE      CODE     ---       #1378
      01004814H   LINE      CODE     ---       #1380
      01004816H   LINE      CODE     ---       #1381
      01004819H   LINE      CODE     ---       #1382
      ---         BLOCKEND  ---      ---       LVL=0

      010048BFH   BLOCK     CODE     ---       LVL=0
      010048BFH   LINE      CODE     ---       #1385
      010048BFH   LINE      CODE     ---       #1386
      010048BFH   LINE      CODE     ---       #1387
      010048C2H   LINE      CODE     ---       #1388
      010048C5H   LINE      CODE     ---       #1389
      010048C8H   LINE      CODE     ---       #1390
      010048CBH   LINE      CODE     ---       #1391
      010048CEH   LINE      CODE     ---       #1393
      010048D0H   LINE      CODE     ---       #1395
      ---         BLOCKEND  ---      ---       LVL=0

      01001BDFH   BLOCK     CODE     ---       LVL=0
      01001BFCH   BLOCK     CODE     NEAR LAB  LVL=1
      020007D3H   SYMBOL    XDATA    WORD      Count
      020007D5H   SYMBOL    XDATA    BYTE      j
LX51 LINKER/LOCATER V4.41                                                             06/21/2011  10:49:25  PAGE 35


      020007D6H   SYMBOL    XDATA    FLOAT     tmp
      020007DAH   SYMBOL    XDATA    CHAR      SFRPAGE_SAVE
      ---         BLOCKEND  ---      ---       LVL=1
      01001BDFH   LINE      CODE     ---       #1398
      01001BFCH   LINE      CODE     ---       #1403
      01001C02H   LINE      CODE     ---       #1404
      01001C05H   LINE      CODE     ---       #1406
      01001C08H   LINE      CODE     ---       #1407
      01001C0BH   LINE      CODE     ---       #1409
      01001C14H   LINE      CODE     ---       #1410
      01001C17H   LINE      CODE     ---       #1411
      01001C26H   LINE      CODE     ---       #1412
      01001C29H   LINE      CODE     ---       #1413
      01001C2FH   LINE      CODE     ---       #1415
      01001C31H   LINE      CODE     ---       #1416
      01001C3FH   LINE      CODE     ---       #1417
      01001C64H   LINE      CODE     ---       #1420
      01001C6EH   LINE      CODE     ---       #1421
      01001C71H   LINE      CODE     ---       #1422
      01001C76H   LINE      CODE     ---       #1423
      01001C76H   LINE      CODE     ---       #1424
      01001C79H   LINE      CODE     ---       #1425
      01001C9AH   LINE      CODE     ---       #1427
      01001C9CH   LINE      CODE     ---       #1428
      01001C9EH   LINE      CODE     ---       #1429
      01001CA0H   LINE      CODE     ---       #1430
      01001CA3H   LINE      CODE     ---       #1432
      01001CD5H   LINE      CODE     ---       #1433
      01001CDFH   LINE      CODE     ---       #1434
      01001CFDH   LINE      CODE     ---       #1438
      01001D7DH   LINE      CODE     ---       #1440
      01001DBFH   LINE      CODE     ---       #1441
      01001E2DH   LINE      CODE     ---       #1442
      01001E48H   LINE      CODE     ---       #1443
      01001E52H   LINE      CODE     ---       #1445
      01001E81H   LINE      CODE     ---       #1446
      01001E95H   LINE      CODE     ---       #1447
      01001ED7H   LINE      CODE     ---       #1448
      01001F24H   LINE      CODE     ---       #1450
      01001F53H   LINE      CODE     ---       #1451
      01001F67H   LINE      CODE     ---       #1452
      01001FB4H   LINE      CODE     ---       #1455
      01001FB7H   LINE      CODE     ---       #1456
      01001FD8H   LINE      CODE     ---       #1458
      01001FDAH   LINE      CODE     ---       #1459
      01001FDCH   LINE      CODE     ---       #1460
      01001FDEH   LINE      CODE     ---       #1461
      01001FE1H   LINE      CODE     ---       #1463
      01001FF2H   LINE      CODE     ---       #1464
      01002059H   LINE      CODE     ---       #1465
      010020A6H   LINE      CODE     ---       #1468
      010020A9H   LINE      CODE     ---       #1469
      010020ACH   LINE      CODE     ---       #1470
      010020CDH   LINE      CODE     ---       #1472
      010020CFH   LINE      CODE     ---       #1473
      010020D1H   LINE      CODE     ---       #1474
      010020D3H   LINE      CODE     ---       #1475
      010020D6H   LINE      CODE     ---       #1477
      010020E2H   LINE      CODE     ---       #1478
      0100212FH   LINE      CODE     ---       #1480
      01002132H   LINE      CODE     ---       #1481
      01002135H   LINE      CODE     ---       #1482
      01002156H   LINE      CODE     ---       #1484
      01002158H   LINE      CODE     ---       #1485
      0100215AH   LINE      CODE     ---       #1486
LX51 LINKER/LOCATER V4.41                                                             06/21/2011  10:49:25  PAGE 36


      0100215CH   LINE      CODE     ---       #1487
      0100215FH   LINE      CODE     ---       #1489
      010021A7H   LINE      CODE     ---       #1490
      010021D1H   LINE      CODE     ---       #1493
      010021D4H   LINE      CODE     ---       #1494
      010021D7H   LINE      CODE     ---       #1495
      010021F8H   LINE      CODE     ---       #1497
      010021FAH   LINE      CODE     ---       #1498
      010021FCH   LINE      CODE     ---       #1499
      010021FEH   LINE      CODE     ---       #1500
      01002201H   LINE      CODE     ---       #1502
      0100220DH   LINE      CODE     ---       #1503
      0100225AH   LINE      CODE     ---       #1505
      0100225DH   LINE      CODE     ---       #1506
      01002260H   LINE      CODE     ---       #1507
      01002281H   LINE      CODE     ---       #1509
      01002283H   LINE      CODE     ---       #1510
      01002285H   LINE      CODE     ---       #1511
      01002287H   LINE      CODE     ---       #1512
      0100228AH   LINE      CODE     ---       #1514
      010022D2H   LINE      CODE     ---       #1515
      01002304H   LINE      CODE     ---       #1518
      01002307H   LINE      CODE     ---       #1519
      0100230AH   LINE      CODE     ---       #1520
      0100232BH   LINE      CODE     ---       #1522
      0100232DH   LINE      CODE     ---       #1523
      0100232FH   LINE      CODE     ---       #1524
      01002331H   LINE      CODE     ---       #1525
      01002334H   LINE      CODE     ---       #1527
      01002340H   LINE      CODE     ---       #1528
      0100238DH   LINE      CODE     ---       #1530
      01002390H   LINE      CODE     ---       #1531
      01002393H   LINE      CODE     ---       #1532
      010023B4H   LINE      CODE     ---       #1534
      010023B6H   LINE      CODE     ---       #1535
      010023B8H   LINE      CODE     ---       #1536
      010023BAH   LINE      CODE     ---       #1537
      010023BDH   LINE      CODE     ---       #1540
      0100240CH   LINE      CODE     ---       #1541
      0100243EH   LINE      CODE     ---       #1544
      01002441H   LINE      CODE     ---       #1545
      01002444H   LINE      CODE     ---       #1546
      0100244BH   LINE      CODE     ---       #1547
      01002466H   LINE      CODE     ---       #1548
      01002468H   LINE      CODE     ---       #1549
      0100246AH   LINE      CODE     ---       #1550
      0100246CH   LINE      CODE     ---       #1551
      0100246FH   LINE      CODE     ---       #1560
      01002472H   LINE      CODE     ---       #1561
      01002475H   LINE      CODE     ---       #1562
      0100247CH   LINE      CODE     ---       #1563
      01002497H   LINE      CODE     ---       #1564
      01002499H   LINE      CODE     ---       #1565
      0100249BH   LINE      CODE     ---       #1566
      0100249DH   LINE      CODE     ---       #1567
      010024A0H   LINE      CODE     ---       #1575
      010024A3H   LINE      CODE     ---       #1576
      010024A6H   LINE      CODE     ---       #1577
      010024ADH   LINE      CODE     ---       #1578
      010024C8H   LINE      CODE     ---       #1579
      010024CAH   LINE      CODE     ---       #1580
      010024CCH   LINE      CODE     ---       #1581
      010024CEH   LINE      CODE     ---       #1582
      010024D1H   LINE      CODE     ---       #1590
      010024D1H   LINE      CODE     ---       #1591
LX51 LINKER/LOCATER V4.41                                                             06/21/2011  10:49:25  PAGE 37


      010024D4H   LINE      CODE     ---       #1594
      010024D6H   LINE      CODE     ---       #1595
      010024D8H   LINE      CODE     ---       #1596
      010024DAH   LINE      CODE     ---       #1597
      010024DDH   LINE      CODE     ---       #1600
      010024E0H   LINE      CODE     ---       #1601
      010024E3H   LINE      CODE     ---       #1602
      010024E6H   LINE      CODE     ---       #1605
      010024E9H   LINE      CODE     ---       #1606
      010024E9H   LINE      CODE     ---       #1607
      010024ECH   LINE      CODE     ---       #1608
      010024EFH   LINE      CODE     ---       #1609
      010024F1H   LINE      CODE     ---       #1610
      010024F3H   LINE      CODE     ---       #1611
      010024F5H   LINE      CODE     ---       #1613
      010024F5H   LINE      CODE     ---       #1614
      010024FBH   LINE      CODE     ---       #1615
      010024FBH   LINE      CODE     ---       #1616
      01002508H   LINE      CODE     ---       #1617
      01002508H   LINE      CODE     ---       #1618
      0100250AH   LINE      CODE     ---       #1619
      0100250AH   LINE      CODE     ---       #1620
      01002518H   LINE      CODE     ---       #1621
      0100251AH   LINE      CODE     ---       #1623
      0100251DH   LINE      CODE     ---       #1624
      01002520H   LINE      CODE     ---       #1625
      01002522H   LINE      CODE     ---       #1626
      01002524H   LINE      CODE     ---       #1628
      01002529H   LINE      CODE     ---       #1629
      0100252EH   LINE      CODE     ---       #1631
      01002530H   LINE      CODE     ---       #1633
      01002533H   LINE      CODE     ---       #1634
      0100253DH   LINE      CODE     ---       #1636
      01002549H   LINE      CODE     ---       #1638
      01002549H   LINE      CODE     ---       #1640
      0100254CH   LINE      CODE     ---       #1641
      0100254EH   LINE      CODE     ---       #1642
      01002550H   LINE      CODE     ---       #1643
      01002552H   LINE      CODE     ---       #1644
      01002558H   LINE      CODE     ---       #1645
      01002558H   LINE      CODE     ---       #1646
      01002564H   LINE      CODE     ---       #1647
      01002567H   LINE      CODE     ---       #1648
      0100256AH   LINE      CODE     ---       #1649
      01002572H   LINE      CODE     ---       #1650
      01002572H   LINE      CODE     ---       #1651
      01002576H   LINE      CODE     ---       #1652
      0100257AH   LINE      CODE     ---       #1653
      01002583H   LINE      CODE     ---       #1654
      0100258BH   LINE      CODE     ---       #1656
      01002596H   LINE      CODE     ---       #1657
      01002598H   LINE      CODE     ---       #1659
      01002598H   LINE      CODE     ---       #1660
      0100259CH   LINE      CODE     ---       #1661
      010025A0H   LINE      CODE     ---       #1662
      010025A0H   LINE      CODE     ---       #1663
      010025C4H   LINE      CODE     ---       #1664
      010025C4H   LINE      CODE     ---       #1665
      010025E0H   LINE      CODE     ---       #1666
      010025E0H   LINE      CODE     ---       #1667
      010025E2H   LINE      CODE     ---       #1668
      010025E2H   LINE      CODE     ---       #1669
      01002602H   LINE      CODE     ---       #1670
      01002604H   LINE      CODE     ---       #1671
      01002615H   LINE      CODE     ---       #1672
LX51 LINKER/LOCATER V4.41                                                             06/21/2011  10:49:25  PAGE 38


      01002615H   LINE      CODE     ---       #1675
      01002618H   LINE      CODE     ---       #1676
      01002618H   LINE      CODE     ---       #1677
      01002622H   LINE      CODE     ---       #1678
      0100262CH   LINE      CODE     ---       #1679
      01002633H   LINE      CODE     ---       #1680
      01002636H   LINE      CODE     ---       #1681
      01002648H   LINE      CODE     ---       #1682
      01002648H   LINE      CODE     ---       #1684
      01002670H   LINE      CODE     ---       #1685
      01002694H   LINE      CODE     ---       #1686
      010026DEH   LINE      CODE     ---       #1687
      010026E0H   LINE      CODE     ---       #1688
      010026E3H   LINE      CODE     ---       #1689
      010026E9H   LINE      CODE     ---       #1690
      010026E9H   LINE      CODE     ---       #1691
      0100271EH   LINE      CODE     ---       #1692
      01002746H   LINE      CODE     ---       #1693
      0100277BH   LINE      CODE     ---       #1695
      010027A0H   LINE      CODE     ---       #1696
      010027C8H   LINE      CODE     ---       #1697
      010027ECH   LINE      CODE     ---       #1698
      010027EFH   LINE      CODE     ---       #1699
      010027EFH   LINE      CODE     ---       #1700
      010027F1H   LINE      CODE     ---       #1701
      01002823H   LINE      CODE     ---       #1702
      01002825H   LINE      CODE     ---       #1704
      0100286FH   LINE      CODE     ---       #1705
      01002872H   LINE      CODE     ---       #1707
      01002872H   LINE      CODE     ---       #1708
      0100289AH   LINE      CODE     ---       #1709
      010028C2H   LINE      CODE     ---       #1710
      010028E6H   LINE      CODE     ---       #1712
      01002930H   LINE      CODE     ---       #1714
      01002944H   LINE      CODE     ---       #1715
      0100296CH   LINE      CODE     ---       #1716
      01002990H   LINE      CODE     ---       #1717
      01002990H   LINE      CODE     ---       #1718
      010029B8H   LINE      CODE     ---       #1719
      010029DCH   LINE      CODE     ---       #1721
      01002A0CH   LINE      CODE     ---       #1722
      01002A34H   LINE      CODE     ---       #1723
      01002A58H   LINE      CODE     ---       #1726
      01002A5BH   LINE      CODE     ---       #1727
      01002A5BH   LINE      CODE     ---       #1728
      01002A6FH   LINE      CODE     ---       #1729
      01002A74H   LINE      CODE     ---       #1730
      01002A7EH   LINE      CODE     ---       #1731
      01002A81H   LINE      CODE     ---       #1733
      01002A81H   LINE      CODE     ---       #1734
      01002A93H   LINE      CODE     ---       #1735
      01002A93H   LINE      CODE     ---       #1736
      01002A9FH   LINE      CODE     ---       #1737
      01002AA4H   LINE      CODE     ---       #1738
      01002B19H   LINE      CODE     ---       #1739
      01002B43H   LINE      CODE     ---       #1740
      01002B46H   LINE      CODE     ---       #1742
      01002B46H   LINE      CODE     ---       #1743
      01002B4EH   LINE      CODE     ---       #1744
      01002B55H   LINE      CODE     ---       #1745
      01002B5AH   LINE      CODE     ---       #1746
      01002B65H   LINE      CODE     ---       #1747
      01002B68H   LINE      CODE     ---       #1748
      01002B86H   LINE      CODE     ---       #1749
      01002B86H   LINE      CODE     ---       #1750
LX51 LINKER/LOCATER V4.41                                                             06/21/2011  10:49:25  PAGE 39


      01002B9AH   LINE      CODE     ---       #1751
      01002BB5H   LINE      CODE     ---       #1752
      01002BBFH   LINE      CODE     ---       #1753
      01002BFDH   LINE      CODE     ---       #1754
      01002C18H   LINE      CODE     ---       #1755
      01002C28H   LINE      CODE     ---       #1756
      01002C5EH   LINE      CODE     ---       #1757
      01002C77H   LINE      CODE     ---       #1758
      01002C77H   LINE      CODE     ---       #1763
      01002CECH   LINE      CODE     ---       #1764
      01002D13H   LINE      CODE     ---       #1765
      01002D13H   LINE      CODE     ---       #1766
      01002D5DH   LINE      CODE     ---       #1767
      01002D85H   LINE      CODE     ---       #1768
      01002DA9H   LINE      CODE     ---       #1769
      01002DA9H   LINE      CODE     ---       #1770
      01002DD9H   LINE      CODE     ---       #1771
      01002E01H   LINE      CODE     ---       #1772
      01002E25H   LINE      CODE     ---       #1802
      01002E28H   LINE      CODE     ---       #1803
      01002E2BH   LINE      CODE     ---       #1814
      01002E5DH   LINE      CODE     ---       #1815
      01002E8CH   LINE      CODE     ---       #1816
      01002E95H   LINE      CODE     ---       #1817
      01002E98H   LINE      CODE     ---       #1823
      01002ECAH   LINE      CODE     ---       #1824
      01002EF9H   LINE      CODE     ---       #1825
      01002F02H   LINE      CODE     ---       #1826
      01002F05H   LINE      CODE     ---       #1828
      01002F07H   LINE      CODE     ---       #1830
      01002F4AH   LINE      CODE     ---       #1831
      01002F53H   LINE      CODE     ---       #1832
      01002F56H   LINE      CODE     ---       #1834
      01002F99H   LINE      CODE     ---       #1835
      01002FA2H   LINE      CODE     ---       #1836
      01002FA5H   LINE      CODE     ---       #1838
      01002FABH   LINE      CODE     ---       #1840
      ---         BLOCKEND  ---      ---       LVL=0

      01000099H   BLOCK     CODE     ---       LVL=0
      ---         BLOCKEND  ---      ---       LVL=0

      010000A2H   BLOCK     CODE     ---       LVL=0
      00000007H   SYMBOL    DATA     BYTE      Byte
      010000A2H   LINE      CODE     ---       #1843
      010000A2H   LINE      CODE     ---       #1844
      010000A2H   LINE      CODE     ---       #1845
      010000A2H   LINE      CODE     ---       #1847
      ---         BLOCKEND  ---      ---       LVL=0

      ---         MODULE    ---      ---       ?C?FPADD
      010037FFH   PUBLIC    CODE     ---       ?C?FPADD
      010037FBH   PUBLIC    CODE     ---       ?C?FPSUB

      ---         MODULE    ---      ---       ?C?FPMUL
      010038F0H   PUBLIC    CODE     ---       ?C?FPMUL

      ---         MODULE    ---      ---       ?C?FPDIV
      010039F9H   PUBLIC    CODE     ---       ?C?FPDIV

      ---         MODULE    ---      ---       ?C?FPCMP
      01003A98H   PUBLIC    CODE     ---       ?C?FPCMP
      01003A96H   PUBLIC    CODE     ---       ?C?FPCMP3

      ---         MODULE    ---      ---       ?C?FPNEG
LX51 LINKER/LOCATER V4.41                                                             06/21/2011  10:49:25  PAGE 40


      01003B03H   PUBLIC    CODE     ---       ?C?FPNEG

      ---         MODULE    ---      ---       ?C?FCAST
      01003B1EH   PUBLIC    CODE     ---       ?C?FCASTC
      01003B19H   PUBLIC    CODE     ---       ?C?FCASTI
      01003B14H   PUBLIC    CODE     ---       ?C?FCASTL

      ---         MODULE    ---      ---       ?C?CASTF
      01003B52H   PUBLIC    CODE     ---       ?C?CASTF

      ---         MODULE    ---      ---       FABS
      010048E0H   PUBLIC    CODE     ---       _FABS

      ---         MODULE    ---      ---       SQRT
      01004436H   PUBLIC    CODE     ---       _SQRT

      ---         MODULE    ---      ---       ATAN2
      00000025H   PUBLIC    DATA     ---       ?_ATAN2?BYTE
      01000026H   PUBLIC    CODE     ---       _ATAN2

      ---         MODULE    ---      ---       SIN
      01003F4AH   PUBLIC    CODE     ---       _COS
      01003F60H   PUBLIC    CODE     ---       _SIN
      01003F92H   PUBLIC    CODE     ---       _TAN

      ---         MODULE    ---      ---       ?C?FPGETOPN
      01003B89H   PUBLIC    CODE     ---       ?C?FPGETOPN2
      01003BBEH   PUBLIC    CODE     ---       ?C?FPNANRESULT
      01003BC8H   PUBLIC    CODE     ---       ?C?FPOVERFLOW
      01003BA0H   PUBLIC    CODE     ---       ?C?FPRESULT
      01003BB4H   PUBLIC    CODE     ---       ?C?FPRESULT2
      01003BC5H   PUBLIC    CODE     ---       ?C?FPUNDERFLOW

      ---         MODULE    ---      ---       ?C?FPSERIES
      01003BD3H   PUBLIC    CODE     ---       ?C?FP2SERIES
      01003BE2H   PUBLIC    CODE     ---       ?C?FPSERIES

      ---         MODULE    ---      ---       ATAN
      010041D0H   PUBLIC    CODE     ---       _ATAN

      ---         MODULE    ---      ---       ?C_INIT
      010045CBH   PUBLIC    CODE     ---       ?C_START

      ---         MODULE    ---      ---       ?C?CLDOPTR
      01003C20H   PUBLIC    CODE     ---       ?C?CLDOPTR

      ---         MODULE    ---      ---       ?C?IMUL
      01003C4DH   PUBLIC    CODE     ---       ?C?IMUL

      ---         MODULE    ---      ---       ?C?SIDIV
      01003C5FH   PUBLIC    CODE     ---       ?C?SIDIV

      ---         MODULE    ---      ---       ?C?ILDIX
      01003C95H   PUBLIC    CODE     ---       ?C?ILDIX

      ---         MODULE    ---      ---       ?C?LMUL
      01003CABH   PUBLIC    CODE     ---       ?C?LMUL

      ---         MODULE    ---      ---       ?C?SLDIV
      010047ACH   PUBLIC    CODE     ---       ?C?SLDIV

      ---         MODULE    ---      ---       ?C?LNEG
      01003CFAH   PUBLIC    CODE     ---       ?C?LNEG

      ---         MODULE    ---      ---       ?C?SLCMP
LX51 LINKER/LOCATER V4.41                                                             06/21/2011  10:49:25  PAGE 41


      01003D08H   PUBLIC    CODE     ---       ?C?SLCMP

      ---         MODULE    ---      ---       ?C?ULCMP
      01003D1EH   PUBLIC    CODE     ---       ?C?ULCMP

      ---         MODULE    ---      ---       ?C?ULSHR
      01003D2FH   PUBLIC    CODE     ---       ?C?ULSHR

      ---         MODULE    ---      ---       ?C?SLSHR
      01003D42H   PUBLIC    CODE     ---       ?C?SLSHR

      ---         MODULE    ---      ---       ?C?LSHL
      01003D56H   PUBLIC    CODE     ---       ?C?LSHL

      ---         MODULE    ---      ---       ?C?LLDCODE
      01003D69H   PUBLIC    CODE     ---       ?C?LLDCODE

      ---         MODULE    ---      ---       ?C?LLDCODE0
      01003D79H   PUBLIC    CODE     ---       ?C?LLDCODE0

      ---         MODULE    ---      ---       ?C?LSTXDATA
      01003D89H   PUBLIC    CODE     ---       ?C?LSTXDATA

      ---         MODULE    ---      ---       ?C?LSTKXDATA
      01003D95H   PUBLIC    CODE     ---       ?C?LSTKXDATA

      ---         MODULE    ---      ---       ATOI
      010042D8H   PUBLIC    CODE     ---       _ATOI

      ---         MODULE    ---      ---       ?C?CLDPTR
      01003DC6H   PUBLIC    CODE     ---       ?C?CLDPTR

      ---         MODULE    ---      ---       ?C?UIDIV
      01003DDFH   PUBLIC    CODE     ---       ?C?UIDIV

      ---         MODULE    ---      ---       ?C?ULDIV
      01003E70H   PUBLIC    CODE     ---       ?C?ULDIV

      ---         MODULE    ---      ---       ISDIGIT
      010048D1H   PUBLIC    CODE     ---       _ISDIGIT

      ---         MODULE    ---      ---       ISSPACE
      0100000EH   PUBLIC    CODE     ---       _ISSPACE

Program Size: data=43.2 xdata=2011 const=0 code=18661
LX51 RUN COMPLETE.  0 WARNING(S),  0 ERROR(S)
